

Microchip MPLAB XC8 Assembler V2.41 build 20230208172133 
                                                                                               Thu Mar 13 18:46:56 2025

Microchip MPLAB XC8 C Compiler v2.41 (Free license) build 20230208172133 Og1 
     1                           	processor	16F877A
     2                           	pagewidth 120
     3                           	opt	flic
     4                           	psect	idataBANK0,global,class=CODE,delta=2,noexec
     5                           	psect	nvBANK0,global,class=BANK0,space=1,delta=1,noexec
     6                           	psect	cinit,global,class=CODE,merge=1,delta=2
     7                           	psect	bssBANK0,global,class=BANK0,space=1,delta=1,noexec
     8                           	psect	dataBANK0,global,class=BANK0,space=1,delta=1,noexec
     9                           	psect	inittext,global,class=CODE,delta=2
    10                           	psect	cstackCOMMON,global,class=COMMON,space=1,delta=1,noexec
    11                           	psect	cstackBANK0,global,class=BANK0,space=1,delta=1,noexec
    12                           	psect	maintext,global,class=CODE,split=1,delta=2
    13                           	psect	text1,local,class=CODE,merge=1,delta=2
    14                           	psect	text2,local,class=CODE,merge=1,delta=2
    15                           	psect	text3,local,class=CODE,merge=1,delta=2
    16                           	psect	text4,local,class=CODE,merge=1,delta=2,group=1
    17                           	psect	text5,local,class=CODE,merge=1,delta=2,group=1
    18                           	psect	text6,local,class=CODE,merge=1,delta=2
    19                           	psect	text7,local,class=CODE,merge=1,delta=2
    20                           	psect	text8,local,class=CODE,merge=1,delta=2
    21                           	psect	text9,local,class=CODE,merge=1,delta=2
    22                           	psect	text10,local,class=CODE,merge=1,delta=2
    23                           	psect	text11,local,class=CODE,merge=1,delta=2,group=1
    24                           	psect	config,global,abs,ovrld,class=CONFIG,space=4,delta=2,noexec
    25                           	dabs	1,0x7E,2
    26     0000                     
    27                           ; Version 2.20
    28                           ; Generated 12/02/2020 GMT
    29                           ; 
    30                           ; Copyright © 2020, Microchip Technology Inc. and its subsidiaries ("Microchip")
    31                           ; All rights reserved.
    32                           ; 
    33                           ; This software is developed by Microchip Technology Inc. and its subsidiaries ("Microch
      +                          ip").
    34                           ; 
    35                           ; Redistribution and use in source and binary forms, with or without modification, are
    36                           ; permitted provided that the following conditions are met:
    37                           ; 
    38                           ;     1. Redistributions of source code must retain the above copyright notice, this lis
      +                          t of
    39                           ;        conditions and the following disclaimer.
    40                           ; 
    41                           ;     2. Redistributions in binary form must reproduce the above copyright notice, this 
      +                          list
    42                           ;        of conditions and the following disclaimer in the documentation and/or other
    43                           ;        materials provided with the distribution.
    44                           ; 
    45                           ;     3. Microchip's name may not be used to endorse or promote products derived from th
      +                          is
    46                           ;        software without specific prior written permission.
    47                           ; 
    48                           ; THIS SOFTWARE IS PROVIDED BY MICROCHIP "AS IS" AND ANY EXPRESS OR IMPLIED WARRANTIES,
    49                           ; INCLUDING, BUT NOT LIMITED TO, THE IMPLIED WARRANTIES OF MERCHANTABILITY AND FITNESS F
      +                          OR
    50                           ; PURPOSE ARE DISCLAIMED.  IN NO EVENT SHALL MICROCHIP BE LIABLE FOR ANY DIRECT, INDIREC
      +                          T,
    51                           ; INCIDENTAL, SPECIAL, EXEMPLARY, OR CONSEQUENTIAL DAMAGES (INCLUDING BUT NOT LIMITED TO
    52                           ; PROCUREMENT OF SUBSTITUTE GOODS OR SERVICES; LOSS OF USE, DATA OR PROFITS; OR BUSINESS
    53                           ; INTERRUPTION) HOWSOEVER CAUSED AND ON ANY THEORY OF LIABILITY, WHETHER IN CONTRACT, ST
      +                          RICT
    54                           ; LIABILITY, OR TORT (INCLUDING NEGLIGENCE OR OTHERWISE) ARISING IN ANY WAY OUT OF THE U
      +                          SE OF
    55                           ; THIS SOFTWARE, EVEN IF ADVISED OF THE POSSIBILITY OF SUCH DAMAGE.
    56                           ; 
    57                           ; 
    58                           ; Code-generator required, PIC16F877A Definitions
    59                           ; 
    60                           ; SFR Addresses
    61     0000                     	;# 
    62     0001                     	;# 
    63     0002                     	;# 
    64     0003                     	;# 
    65     0004                     	;# 
    66     0005                     	;# 
    67     0006                     	;# 
    68     0007                     	;# 
    69     0008                     	;# 
    70     0009                     	;# 
    71     000A                     	;# 
    72     000B                     	;# 
    73     000C                     	;# 
    74     000D                     	;# 
    75     000E                     	;# 
    76     000E                     	;# 
    77     000F                     	;# 
    78     0010                     	;# 
    79     0011                     	;# 
    80     0012                     	;# 
    81     0013                     	;# 
    82     0014                     	;# 
    83     0015                     	;# 
    84     0015                     	;# 
    85     0016                     	;# 
    86     0017                     	;# 
    87     0018                     	;# 
    88     0019                     	;# 
    89     001A                     	;# 
    90     001B                     	;# 
    91     001B                     	;# 
    92     001C                     	;# 
    93     001D                     	;# 
    94     001E                     	;# 
    95     001F                     	;# 
    96     0081                     	;# 
    97     0085                     	;# 
    98     0086                     	;# 
    99     0087                     	;# 
   100     0088                     	;# 
   101     0089                     	;# 
   102     008C                     	;# 
   103     008D                     	;# 
   104     008E                     	;# 
   105     0091                     	;# 
   106     0092                     	;# 
   107     0093                     	;# 
   108     0094                     	;# 
   109     0098                     	;# 
   110     0099                     	;# 
   111     009C                     	;# 
   112     009D                     	;# 
   113     009E                     	;# 
   114     009F                     	;# 
   115     010C                     	;# 
   116     010D                     	;# 
   117     010E                     	;# 
   118     010F                     	;# 
   119     018C                     	;# 
   120     018D                     	;# 
   121     0000                     	;# 
   122     0001                     	;# 
   123     0002                     	;# 
   124     0003                     	;# 
   125     0004                     	;# 
   126     0005                     	;# 
   127     0006                     	;# 
   128     0007                     	;# 
   129     0008                     	;# 
   130     0009                     	;# 
   131     000A                     	;# 
   132     000B                     	;# 
   133     000C                     	;# 
   134     000D                     	;# 
   135     000E                     	;# 
   136     000E                     	;# 
   137     000F                     	;# 
   138     0010                     	;# 
   139     0011                     	;# 
   140     0012                     	;# 
   141     0013                     	;# 
   142     0014                     	;# 
   143     0015                     	;# 
   144     0015                     	;# 
   145     0016                     	;# 
   146     0017                     	;# 
   147     0018                     	;# 
   148     0019                     	;# 
   149     001A                     	;# 
   150     001B                     	;# 
   151     001B                     	;# 
   152     001C                     	;# 
   153     001D                     	;# 
   154     001E                     	;# 
   155     001F                     	;# 
   156     0081                     	;# 
   157     0085                     	;# 
   158     0086                     	;# 
   159     0087                     	;# 
   160     0088                     	;# 
   161     0089                     	;# 
   162     008C                     	;# 
   163     008D                     	;# 
   164     008E                     	;# 
   165     0091                     	;# 
   166     0092                     	;# 
   167     0093                     	;# 
   168     0094                     	;# 
   169     0098                     	;# 
   170     0099                     	;# 
   171     009C                     	;# 
   172     009D                     	;# 
   173     009E                     	;# 
   174     009F                     	;# 
   175     010C                     	;# 
   176     010D                     	;# 
   177     010E                     	;# 
   178     010F                     	;# 
   179     018C                     	;# 
   180     018D                     	;# 
   181     0000                     	;# 
   182     0001                     	;# 
   183     0002                     	;# 
   184     0003                     	;# 
   185     0004                     	;# 
   186     0005                     	;# 
   187     0006                     	;# 
   188     0007                     	;# 
   189     0008                     	;# 
   190     0009                     	;# 
   191     000A                     	;# 
   192     000B                     	;# 
   193     000C                     	;# 
   194     000D                     	;# 
   195     000E                     	;# 
   196     000E                     	;# 
   197     000F                     	;# 
   198     0010                     	;# 
   199     0011                     	;# 
   200     0012                     	;# 
   201     0013                     	;# 
   202     0014                     	;# 
   203     0015                     	;# 
   204     0015                     	;# 
   205     0016                     	;# 
   206     0017                     	;# 
   207     0018                     	;# 
   208     0019                     	;# 
   209     001A                     	;# 
   210     001B                     	;# 
   211     001B                     	;# 
   212     001C                     	;# 
   213     001D                     	;# 
   214     001E                     	;# 
   215     001F                     	;# 
   216     0081                     	;# 
   217     0085                     	;# 
   218     0086                     	;# 
   219     0087                     	;# 
   220     0088                     	;# 
   221     0089                     	;# 
   222     008C                     	;# 
   223     008D                     	;# 
   224     008E                     	;# 
   225     0091                     	;# 
   226     0092                     	;# 
   227     0093                     	;# 
   228     0094                     	;# 
   229     0098                     	;# 
   230     0099                     	;# 
   231     009C                     	;# 
   232     009D                     	;# 
   233     009E                     	;# 
   234     009F                     	;# 
   235     010C                     	;# 
   236     010D                     	;# 
   237     010E                     	;# 
   238     010F                     	;# 
   239     018C                     	;# 
   240     018D                     	;# 
   241     0000                     	;# 
   242     0001                     	;# 
   243     0002                     	;# 
   244     0003                     	;# 
   245     0004                     	;# 
   246     0005                     	;# 
   247     0006                     	;# 
   248     0007                     	;# 
   249     0008                     	;# 
   250     0009                     	;# 
   251     000A                     	;# 
   252     000B                     	;# 
   253     000C                     	;# 
   254     000D                     	;# 
   255     000E                     	;# 
   256     000E                     	;# 
   257     000F                     	;# 
   258     0010                     	;# 
   259     0011                     	;# 
   260     0012                     	;# 
   261     0013                     	;# 
   262     0014                     	;# 
   263     0015                     	;# 
   264     0015                     	;# 
   265     0016                     	;# 
   266     0017                     	;# 
   267     0018                     	;# 
   268     0019                     	;# 
   269     001A                     	;# 
   270     001B                     	;# 
   271     001B                     	;# 
   272     001C                     	;# 
   273     001D                     	;# 
   274     001E                     	;# 
   275     001F                     	;# 
   276     0081                     	;# 
   277     0085                     	;# 
   278     0086                     	;# 
   279     0087                     	;# 
   280     0088                     	;# 
   281     0089                     	;# 
   282     008C                     	;# 
   283     008D                     	;# 
   284     008E                     	;# 
   285     0091                     	;# 
   286     0092                     	;# 
   287     0093                     	;# 
   288     0094                     	;# 
   289     0098                     	;# 
   290     0099                     	;# 
   291     009C                     	;# 
   292     009D                     	;# 
   293     009E                     	;# 
   294     009F                     	;# 
   295     010C                     	;# 
   296     010D                     	;# 
   297     010E                     	;# 
   298     010F                     	;# 
   299     018C                     	;# 
   300     018D                     	;# 
   301     0000                     	;# 
   302     0001                     	;# 
   303     0002                     	;# 
   304     0003                     	;# 
   305     0004                     	;# 
   306     0005                     	;# 
   307     0006                     	;# 
   308     0007                     	;# 
   309     0008                     	;# 
   310     0009                     	;# 
   311     000A                     	;# 
   312     000B                     	;# 
   313     000C                     	;# 
   314     000D                     	;# 
   315     000E                     	;# 
   316     000E                     	;# 
   317     000F                     	;# 
   318     0010                     	;# 
   319     0011                     	;# 
   320     0012                     	;# 
   321     0013                     	;# 
   322     0014                     	;# 
   323     0015                     	;# 
   324     0015                     	;# 
   325     0016                     	;# 
   326     0017                     	;# 
   327     0018                     	;# 
   328     0019                     	;# 
   329     001A                     	;# 
   330     001B                     	;# 
   331     001B                     	;# 
   332     001C                     	;# 
   333     001D                     	;# 
   334     001E                     	;# 
   335     001F                     	;# 
   336     0081                     	;# 
   337     0085                     	;# 
   338     0086                     	;# 
   339     0087                     	;# 
   340     0088                     	;# 
   341     0089                     	;# 
   342     008C                     	;# 
   343     008D                     	;# 
   344     008E                     	;# 
   345     0091                     	;# 
   346     0092                     	;# 
   347     0093                     	;# 
   348     0094                     	;# 
   349     0098                     	;# 
   350     0099                     	;# 
   351     009C                     	;# 
   352     009D                     	;# 
   353     009E                     	;# 
   354     009F                     	;# 
   355     010C                     	;# 
   356     010D                     	;# 
   357     010E                     	;# 
   358     010F                     	;# 
   359     018C                     	;# 
   360     018D                     	;# 
   361     0000                     	;# 
   362     0001                     	;# 
   363     0002                     	;# 
   364     0003                     	;# 
   365     0004                     	;# 
   366     0005                     	;# 
   367     0006                     	;# 
   368     0007                     	;# 
   369     0008                     	;# 
   370     0009                     	;# 
   371     000A                     	;# 
   372     000B                     	;# 
   373     000C                     	;# 
   374     000D                     	;# 
   375     000E                     	;# 
   376     000E                     	;# 
   377     000F                     	;# 
   378     0010                     	;# 
   379     0011                     	;# 
   380     0012                     	;# 
   381     0013                     	;# 
   382     0014                     	;# 
   383     0015                     	;# 
   384     0015                     	;# 
   385     0016                     	;# 
   386     0017                     	;# 
   387     0018                     	;# 
   388     0019                     	;# 
   389     001A                     	;# 
   390     001B                     	;# 
   391     001B                     	;# 
   392     001C                     	;# 
   393     001D                     	;# 
   394     001E                     	;# 
   395     001F                     	;# 
   396     0081                     	;# 
   397     0085                     	;# 
   398     0086                     	;# 
   399     0087                     	;# 
   400     0088                     	;# 
   401     0089                     	;# 
   402     008C                     	;# 
   403     008D                     	;# 
   404     008E                     	;# 
   405     0091                     	;# 
   406     0092                     	;# 
   407     0093                     	;# 
   408     0094                     	;# 
   409     0098                     	;# 
   410     0099                     	;# 
   411     009C                     	;# 
   412     009D                     	;# 
   413     009E                     	;# 
   414     009F                     	;# 
   415     010C                     	;# 
   416     010D                     	;# 
   417     010E                     	;# 
   418     010F                     	;# 
   419     018C                     	;# 
   420     018D                     	;# 
   421                           
   422                           	psect	idataBANK0
   423     04B9                     __pidataBANK0:
   424                           
   425                           ;initializer for main@F864
   426     04B9  343F               	retlw	63
   427     04BA  3406               	retlw	6
   428     04BB  345B               	retlw	91
   429     04BC  344F               	retlw	79
   430     04BD  3466               	retlw	102
   431     04BE  346D               	retlw	109
   432     04BF  347D               	retlw	125
   433     04C0  3407               	retlw	7
   434     04C1  347F               	retlw	127
   435     04C2  346F               	retlw	111
   436                           
   437                           ;initializer for read_digital_keypad@once
   438     04C3  3401               	retlw	1
   439                           
   440                           	psect	nvBANK0
   441     004D                     __pnvBANK0:
   442     004D                     main@key:
   443     004D                     	ds	1
   444     000B                     _INTCONbits	set	11
   445     0003                     _STATUSbits	set	3
   446     0008                     _PORTD	set	8
   447     0005                     _PORTA	set	5
   448     0006                     _PORTB	set	6
   449     0085                     _TRISA	set	133
   450     0088                     _TRISD	set	136
   451     0086                     _TRISB	set	134
   452     010C                     _EEDATA	set	268
   453     010D                     _EEADR	set	269
   454     018D                     _EECON2	set	397
   455     018C                     _EECON1	set	396
   456     018C                     _EECON1bits	set	396
   457                           
   458                           	psect	cinit
   459     07E8                     start_initialization:	
   460                           ; #config settings
   461                           
   462     07E8                     __initialization:
   463                           
   464                           ; Initialize objects allocated to BANK0
   465     07E8  1383               	bcf	3,7	;select IRP bank0
   466     07E9  3047               	movlw	low (__pdataBANK0+11)
   467     07EA  00FD               	movwf	btemp+-1
   468     07EB  3004               	movlw	high __pidataBANK0
   469     07EC  00FE               	movwf	btemp
   470     07ED  30B9               	movlw	low __pidataBANK0
   471     07EE  00FF               	movwf	btemp+1
   472     07EF  303C               	movlw	low __pdataBANK0
   473     07F0  0084               	movwf	4
   474     07F1  120A  118A  24D4  120A  118A  	fcall	init_ram0
   475                           
   476                           ; Clear objects allocated to BANK0
   477     07F6  01C7               	clrf	__pbssBANK0& (0+127)
   478     07F7  01C8               	clrf	(__pbssBANK0+1)& (0+127)
   479     07F8  01C9               	clrf	(__pbssBANK0+2)& (0+127)
   480     07F9  01CA               	clrf	(__pbssBANK0+3)& (0+127)
   481     07FA  01CB               	clrf	(__pbssBANK0+4)& (0+127)
   482     07FB  01CC               	clrf	(__pbssBANK0+5)& (0+127)
   483     07FC                     end_of_initialization:	
   484                           ;End of C runtime variable initialization code
   485                           
   486     07FC                     __end_of__initialization:
   487     07FC  0183               	clrf	3
   488     07FD  120A  118A  2EA1   	ljmp	_main	;jump to C main() function
   489                           
   490                           	psect	bssBANK0
   491     0047                     __pbssBANK0:
   492     0047                     main@wait:
   493     0047                     	ds	2
   494     0049                     main@flag:
   495     0049                     	ds	2
   496     004B                     main@count:
   497     004B                     	ds	2
   498                           
   499                           	psect	dataBANK0
   500     003C                     __pdataBANK0:
   501     003C                     main@F864:
   502     003C                     	ds	10
   503     0046                     read_digital_keypad@once:
   504     0046                     	ds	1
   505                           
   506                           	psect	inittext
   507     04D0                     init_fetch0:	
   508                           ;	Called with low address in FSR and high address in W
   509                           
   510     04D0  087E               	movf	btemp,w
   511     04D1  008A               	movwf	10
   512     04D2  087F               	movf	btemp+1,w
   513     04D3  0082               	movwf	2
   514     04D4                     init_ram0:	
   515                           ;Called with:
   516                           ;	high address of idata address in btemp 
   517                           ;	low address of idata address in btemp+1 
   518                           ;	low address of data in FSR
   519                           ;	high address + 1 of data in btemp-1
   520                           
   521     04D4  120A  118A  24D0  120A  118A  	fcall	init_fetch0
   522     04D9  0080               	movwf	0
   523     04DA  0A84               	incf	4,f
   524     04DB  0804               	movf	4,w
   525     04DC  067D               	xorwf	btemp+-1,w
   526     04DD  1903               	btfsc	3,2
   527     04DE  3400               	retlw	0
   528     04DF  0AFF               	incf	btemp+1,f
   529     04E0  1903               	btfsc	3,2
   530     04E1  0AFE               	incf	btemp,f
   531     04E2  2CD4               	goto	init_ram0
   532                           
   533                           	psect	cstackCOMMON
   534     0070                     __pcstackCOMMON:
   535     0070                     ?_init_digital_keypad:
   536     0070                     ??_init_digital_keypad:	
   537                           ; 1 bytes @ 0x0
   538                           
   539     0070                     ?_init_ssd:	
   540                           ; 1 bytes @ 0x0
   541                           
   542     0070                     ??_init_ssd:	
   543                           ; 1 bytes @ 0x0
   544                           
   545     0070                     ?_read_digital_keypad:	
   546                           ; 1 bytes @ 0x0
   547                           
   548     0070                     ??_read_digital_keypad:	
   549                           ; 1 bytes @ 0x0
   550                           
   551     0070                     ?_eeprom_read:	
   552                           ; 1 bytes @ 0x0
   553                           
   554     0070                     ??_eeprom_read:	
   555                           ; 1 bytes @ 0x0
   556                           
   557     0070                     ?_display:	
   558                           ; 1 bytes @ 0x0
   559                           
   560     0070                     ??_display:	
   561                           ; 1 bytes @ 0x0
   562                           
   563     0070                     ?_init_config:	
   564                           ; 1 bytes @ 0x0
   565                           
   566     0070                     ??_init_config:	
   567                           ; 1 bytes @ 0x0
   568                           
   569     0070                     ?_main:	
   570                           ; 1 bytes @ 0x0
   571                           
   572     0070                     ?___lwdiv:	
   573                           ; 1 bytes @ 0x0
   574                           
   575     0070                     eeprom_read@addr:	
   576                           ; 2 bytes @ 0x0
   577                           
   578     0070                     ___lwdiv@divisor:	
   579                           ; 1 bytes @ 0x0
   580                           
   581                           
   582                           ; 2 bytes @ 0x0
   583     0070                     	ds	1
   584     0071                     ?___wmul:
   585     0071                     read_digital_keypad@mode:	
   586                           ; 2 bytes @ 0x1
   587                           
   588     0071                     display@wait:	
   589                           ; 1 bytes @ 0x1
   590                           
   591     0071                     ___wmul@multiplier:	
   592                           ; 2 bytes @ 0x1
   593                           
   594                           
   595                           ; 2 bytes @ 0x1
   596     0071                     	ds	1
   597     0072                     ___lwdiv@dividend:
   598                           
   599                           ; 2 bytes @ 0x2
   600     0072                     	ds	1
   601     0073                     display@data:
   602     0073                     ___wmul@multiplicand:	
   603                           ; 1 bytes @ 0x3
   604                           
   605                           
   606                           ; 2 bytes @ 0x3
   607     0073                     	ds	1
   608     0074                     ??___lwdiv:
   609     0074                     display@digit:	
   610                           ; 1 bytes @ 0x4
   611                           
   612     0074                     ___lwdiv@quotient:	
   613                           ; 1 bytes @ 0x4
   614                           
   615                           
   616                           ; 2 bytes @ 0x4
   617     0074                     	ds	1
   618     0075                     ??___wmul:
   619     0075                     ___wmul@product:	
   620                           ; 1 bytes @ 0x5
   621                           
   622                           
   623                           ; 2 bytes @ 0x5
   624     0075                     	ds	1
   625     0076                     ___lwdiv@counter:
   626                           
   627                           ; 1 bytes @ 0x6
   628     0076                     	ds	1
   629     0077                     ?___lwmod:
   630     0077                     ___lwmod@divisor:	
   631                           ; 2 bytes @ 0x7
   632                           
   633                           
   634                           ; 2 bytes @ 0x7
   635     0077                     	ds	2
   636     0079                     ___lwmod@dividend:
   637                           
   638                           ; 2 bytes @ 0x9
   639     0079                     	ds	2
   640     007B                     ??___lwmod:
   641     007B                     ___lwmod@counter:	
   642                           ; 1 bytes @ 0xB
   643                           
   644                           
   645                           ; 1 bytes @ 0xB
   646     007B                     	ds	1
   647     007C                     ?_eeprom_write:
   648     007C                     eeprom_write@value:	
   649                           ; 1 bytes @ 0xC
   650                           
   651                           
   652                           ; 1 bytes @ 0xC
   653     007C                     	ds	1
   654     007D                     ??_eeprom_write:
   655     007D                     eeprom_write@addr:	
   656                           ; 1 bytes @ 0xD
   657                           
   658                           
   659                           ; 1 bytes @ 0xD
   660     007D                     	ds	1
   661     007E                     ??_memory_write:
   662                           
   663                           	psect	cstackBANK0
   664     0020                     __pcstackBANK0:	
   665                           ; 1 bytes @ 0xE
   666                           
   667     0020                     ?_memory_write:
   668     0020                     memory_write@count:	
   669                           ; 1 bytes @ 0x0
   670                           
   671                           
   672                           ; 2 bytes @ 0x0
   673     0020                     	ds	2
   674     0022                     ??_main:
   675                           
   676                           ; 1 bytes @ 0x2
   677     0022                     	ds	12
   678     002E                     main@digit:
   679                           
   680                           ; 10 bytes @ 0xE
   681     002E                     	ds	10
   682     0038                     main@ssd:
   683                           
   684                           ; 4 bytes @ 0x18
   685     0038                     	ds	4
   686                           
   687                           	psect	maintext
   688     06A1                     __pmaintext:	
   689 ;;
   690 ;;Main: autosize = 0, tempsize = 12, incstack = 0, save=0
   691 ;;
   692 ;; *************** function _main *****************
   693 ;; Defined at:
   694 ;;		line 21 in file "main.c"
   695 ;; Parameters:    Size  Location     Type
   696 ;;		None
   697 ;; Auto vars:     Size  Location     Type
   698 ;;  digit          10   14[BANK0 ] unsigned char [10]
   699 ;;  ssd             4   24[BANK0 ] unsigned char [4]
   700 ;; Return value:  Size  Location     Type
   701 ;;                  1    wreg      void 
   702 ;; Registers used:
   703 ;;		wreg, fsr0l, fsr0h, status,2, status,0, btemp+1, pclath, cstack
   704 ;; Tracked objects:
   705 ;;		On entry : B00/0
   706 ;;		On exit  : 0/0
   707 ;;		Unchanged: 0/0
   708 ;; Data sizes:     COMMON   BANK0   BANK1   BANK3   BANK2
   709 ;;      Params:         0       0       0       0       0
   710 ;;      Locals:         0      14       0       0       0
   711 ;;      Temps:          0      12       0       0       0
   712 ;;      Totals:         0      26       0       0       0
   713 ;;Total ram usage:       26 bytes
   714 ;; Hardware stack levels required when called: 2
   715 ;; This function calls:
   716 ;;		___lwdiv
   717 ;;		___lwmod
   718 ;;		___wmul
   719 ;;		_display
   720 ;;		_eeprom_read
   721 ;;		_init_config
   722 ;;		_memory_write
   723 ;;		_read_digital_keypad
   724 ;; This function is called by:
   725 ;;		Startup code after reset
   726 ;; This function uses a non-reentrant model
   727 ;;
   728                           
   729     06A1                     _main:	
   730                           ;psect for function _main
   731                           
   732     06A1                     l1028:	
   733                           ;incstack = 0
   734                           ; Regs used in _main: [wreg-fsr0h+status,2+status,0+btemp+1+pclath+cstack]
   735                           
   736                           
   737                           ;main.c: 23:     {
   738     06A1  120A  118A  24AE  120A  118A  	fcall	_init_config
   739     06A6                     l1030:
   740                           
   741                           ;main.c: 24:         key=read_digital_keypad(1);;main.c: 25:         if(key==0x3D);main.
      +                          c: 26:         {;main.c: 27:             memory_write(count);
   742     06A6  302E               	movlw	main@digit& (0+255)
   743     06A7  0084               	movwf	4
   744     06A8  303C               	movlw	low main@F864
   745     06A9  1283               	bcf	3,5	;RP0=0, select bank0
   746     06AA  1303               	bcf	3,6	;RP1=0, select bank0
   747     06AB  00A2               	movwf	??_main
   748     06AC  0804               	movf	4,w
   749     06AD  00A3               	movwf	??_main+1
   750     06AE  300A               	movlw	10
   751     06AF  00A4               	movwf	??_main+2
   752     06B0                     u620:
   753     06B0  0822               	movf	??_main,w
   754     06B1  0084               	movwf	4
   755     06B2  1383               	bcf	3,7	;select IRP bank0
   756     06B3  0800               	movf	0,w
   757     06B4  00A5               	movwf	??_main+3
   758     06B5  0AA2               	incf	??_main,f
   759     06B6  0823               	movf	??_main+1,w
   760     06B7  0084               	movwf	4
   761     06B8  0825               	movf	??_main+3,w
   762     06B9  0080               	movwf	0
   763     06BA  0AA3               	incf	??_main+1,f
   764     06BB  0BA4               	decfsz	??_main+2,f
   765     06BC  2EB0               	goto	u620
   766     06BD                     l1032:
   767                           
   768                           ;main.c: 30:         {;main.c: 31:             wait=0;
   769     06BD  3001               	movlw	1
   770     06BE  120A  118A  251F  120A  118A  	fcall	_read_digital_keypad
   771     06C3  1283               	bcf	3,5	;RP0=0, select bank0
   772     06C4  1303               	bcf	3,6	;RP1=0, select bank0
   773     06C5  00CD               	movwf	main@key
   774     06C6                     l1034:
   775                           
   776                           ;main.c: 32:             if(flag == 0)
   777     06C6  303D               	movlw	61
   778     06C7  064D               	xorwf	main@key,w
   779     06C8  1D03               	btfss	3,2
   780     06C9  2ECB               	goto	u631
   781     06CA  2ECC               	goto	u630
   782     06CB                     u631:
   783     06CB  2ED5               	goto	l1038
   784     06CC                     u630:
   785     06CC                     l1036:
   786                           
   787                           ;main.c: 33:             {;main.c: 34:                  count=1000*eeprom_read(0x00)+100
      +                          *eeprom_read(0x01)+10*eeprom_read(0x02)+ eeprom_read(0x03);
   788     06CC  084C               	movf	main@count+1,w
   789     06CD  00A1               	movwf	memory_write@count+1
   790     06CE  084B               	movf	main@count,w
   791     06CF  00A0               	movwf	memory_write@count
   792     06D0  120A  118A  262A  120A  118A  	fcall	_memory_write
   793     06D5                     l1038:
   794                           
   795                           ;main.c: 36:             }
   796     06D5  3001               	movlw	1
   797     06D6  1283               	bcf	3,5	;RP0=0, select bank0
   798     06D7  1303               	bcf	3,6	;RP1=0, select bank0
   799     06D8  07C7               	addwf	main@wait,f
   800     06D9  1803               	skipnc
   801     06DA  0AC8               	incf	main@wait+1,f
   802     06DB  3000               	movlw	0
   803     06DC  07C8               	addwf	main@wait+1,f
   804     06DD  304C               	movlw	76
   805     06DE  0647               	xorwf	main@wait,w
   806     06DF  0448               	iorwf	main@wait+1,w
   807     06E0  1D03               	btfss	3,2
   808     06E1  2EE3               	goto	u641
   809     06E2  2EE4               	goto	u640
   810     06E3                     u641:
   811     06E3  2FDE               	goto	l1060
   812     06E4                     u640:
   813     06E4                     l1040:
   814                           
   815                           ;main.c: 37:             else;main.c: 38:             {
   816     06E4  01C7               	clrf	main@wait
   817     06E5  01C8               	clrf	main@wait+1
   818     06E6                     l1042:
   819                           
   820                           ;main.c: 39:                 count++;
   821     06E6  0849               	movf	main@flag,w
   822     06E7  044A               	iorwf	main@flag+1,w
   823     06E8  1D03               	btfss	3,2
   824     06E9  2EEB               	goto	u651
   825     06EA  2EEC               	goto	u650
   826     06EB                     u651:
   827     06EB  2F5F               	goto	l1048
   828     06EC                     u650:
   829     06EC                     l1044:
   830                           
   831                           ;main.c: 40:             };main.c: 41:             if(count > 9999)
   832     06EC  3000               	movlw	0
   833     06ED  120A  118A  24E3  120A  118A  	fcall	_eeprom_read
   834     06F2  1283               	bcf	3,5	;RP0=0, select bank0
   835     06F3  1303               	bcf	3,6	;RP1=0, select bank0
   836     06F4  00A2               	movwf	??_main
   837     06F5  01A3               	clrf	??_main+1
   838     06F6  0822               	movf	??_main,w
   839     06F7  00F1               	movwf	___wmul@multiplier
   840     06F8  0823               	movf	??_main+1,w
   841     06F9  00F2               	movwf	___wmul@multiplier+1
   842     06FA  30E8               	movlw	232
   843     06FB  00F3               	movwf	___wmul@multiplicand
   844     06FC  3003               	movlw	3
   845     06FD  00F4               	movwf	___wmul@multiplicand+1
   846     06FE  120A  118A  24FA  120A  118A  	fcall	___wmul
   847     0703  0871               	movf	?___wmul,w
   848     0704  1283               	bcf	3,5	;RP0=0, select bank0
   849     0705  1303               	bcf	3,6	;RP1=0, select bank0
   850     0706  00A4               	movwf	??_main+2
   851     0707  0872               	movf	?___wmul+1,w
   852     0708  00A5               	movwf	??_main+3
   853     0709  3001               	movlw	1
   854     070A  120A  118A  24E3  120A  118A  	fcall	_eeprom_read
   855     070F  1283               	bcf	3,5	;RP0=0, select bank0
   856     0710  1303               	bcf	3,6	;RP1=0, select bank0
   857     0711  00A6               	movwf	??_main+4
   858     0712  01A7               	clrf	??_main+5
   859     0713  0826               	movf	??_main+4,w
   860     0714  00F1               	movwf	___wmul@multiplier
   861     0715  0827               	movf	??_main+5,w
   862     0716  00F2               	movwf	___wmul@multiplier+1
   863     0717  3064               	movlw	100
   864     0718  00F3               	movwf	___wmul@multiplicand
   865     0719  3000               	movlw	0
   866     071A  00F4               	movwf	___wmul@multiplicand+1
   867     071B  120A  118A  24FA  120A  118A  	fcall	___wmul
   868     0720  0871               	movf	?___wmul,w
   869     0721  1283               	bcf	3,5	;RP0=0, select bank0
   870     0722  1303               	bcf	3,6	;RP1=0, select bank0
   871     0723  0724               	addwf	??_main+2,w
   872     0724  00A8               	movwf	??_main+6
   873     0725  0872               	movf	?___wmul+1,w
   874     0726  1803               	skipnc
   875     0727  0A72               	incf	?___wmul+1,w
   876     0728  0725               	addwf	??_main+3,w
   877     0729  00A9               	movwf	??_main+7
   878     072A  3002               	movlw	2
   879     072B  120A  118A  24E3  120A  118A  	fcall	_eeprom_read
   880     0730  1283               	bcf	3,5	;RP0=0, select bank0
   881     0731  1303               	bcf	3,6	;RP1=0, select bank0
   882     0732  00AA               	movwf	??_main+8
   883     0733  01AB               	clrf	??_main+9
   884     0734  082A               	movf	??_main+8,w
   885     0735  00F1               	movwf	___wmul@multiplier
   886     0736  082B               	movf	??_main+9,w
   887     0737  00F2               	movwf	___wmul@multiplier+1
   888     0738  300A               	movlw	10
   889     0739  00F3               	movwf	___wmul@multiplicand
   890     073A  3000               	movlw	0
   891     073B  00F4               	movwf	___wmul@multiplicand+1
   892     073C  120A  118A  24FA  120A  118A  	fcall	___wmul
   893     0741  0871               	movf	?___wmul,w
   894     0742  1283               	bcf	3,5	;RP0=0, select bank0
   895     0743  1303               	bcf	3,6	;RP1=0, select bank0
   896     0744  0728               	addwf	??_main+6,w
   897     0745  00AC               	movwf	??_main+10
   898     0746  0872               	movf	?___wmul+1,w
   899     0747  1803               	skipnc
   900     0748  0A72               	incf	?___wmul+1,w
   901     0749  0729               	addwf	??_main+7,w
   902     074A  00AD               	movwf	??_main+11
   903     074B  3003               	movlw	3
   904     074C  120A  118A  24E3  120A  118A  	fcall	_eeprom_read
   905     0751  1283               	bcf	3,5	;RP0=0, select bank0
   906     0752  1303               	bcf	3,6	;RP1=0, select bank0
   907     0753  072C               	addwf	??_main+10,w
   908     0754  00CB               	movwf	main@count
   909     0755  3000               	movlw	0
   910     0756  1803               	skipnc
   911     0757  3001               	movlw	1
   912     0758  072D               	addwf	??_main+11,w
   913     0759  00CC               	movwf	main@count+1
   914     075A                     l1046:
   915                           
   916                           ;main.c: 42:             {
   917     075A  3001               	movlw	1
   918     075B  00C9               	movwf	main@flag
   919     075C  3000               	movlw	0
   920     075D  00CA               	movwf	main@flag+1
   921                           
   922                           ;main.c: 43:                 count=0;
   923     075E  2F65               	goto	l37
   924     075F                     l1048:
   925                           
   926                           ;main.c: 45:             ssd[3] = digit[count%10];;main.c: 46:             ssd[2] = digi
      +                          t[(count/10)%10];
   927     075F  3001               	movlw	1
   928     0760  07CB               	addwf	main@count,f
   929     0761  1803               	skipnc
   930     0762  0ACC               	incf	main@count+1,f
   931     0763  3000               	movlw	0
   932     0764  07CC               	addwf	main@count+1,f
   933     0765                     l37:	
   934                           ;main.c: 47:             ssd[1] = digit[(count/100)%10];
   935                           
   936                           
   937                           ;main.c: 48:             ssd[0] = digit[count/1000];
   938     0765  3027               	movlw	39
   939     0766  024C               	subwf	main@count+1,w
   940     0767  3010               	movlw	16
   941     0768  1903               	skipnz
   942     0769  024B               	subwf	main@count,w
   943     076A  1C03               	skipc
   944     076B  2F6D               	goto	u661
   945     076C  2F6E               	goto	u660
   946     076D                     u661:
   947     076D  2F70               	goto	l1052
   948     076E                     u660:
   949     076E                     l1050:
   950                           
   951                           ;main.c: 49:          };main.c: 50: 
   952     076E  01CB               	clrf	main@count
   953     076F  01CC               	clrf	main@count+1
   954     0770                     l1052:
   955                           
   956                           ;main.c: 52: 
   957     0770  300A               	movlw	10
   958     0771  00F7               	movwf	___lwmod@divisor
   959     0772  3000               	movlw	0
   960     0773  00F8               	movwf	___lwmod@divisor+1
   961     0774  084C               	movf	main@count+1,w
   962     0775  00FA               	movwf	___lwmod@dividend+1
   963     0776  084B               	movf	main@count,w
   964     0777  00F9               	movwf	___lwmod@dividend
   965     0778  120A  118A  25AC  120A  118A  	fcall	___lwmod
   966     077D  0877               	movf	?___lwmod,w
   967     077E  3E2E               	addlw	(low (main@digit| 0))& (0+255)
   968     077F  0084               	movwf	4
   969     0780  1383               	bcf	3,7	;select IRP bank0
   970     0781  0800               	movf	0,w
   971     0782  1283               	bcf	3,5	;RP0=0, select bank0
   972     0783  1303               	bcf	3,6	;RP1=0, select bank0
   973     0784  00BB               	movwf	main@ssd+3
   974     0785                     l1054:
   975                           
   976                           ;main.c: 53:     }
   977     0785  300A               	movlw	10
   978     0786  00F7               	movwf	___lwmod@divisor
   979     0787  3000               	movlw	0
   980     0788  00F8               	movwf	___lwmod@divisor+1
   981     0789  300A               	movlw	10
   982     078A  00F0               	movwf	___lwdiv@divisor
   983     078B  3000               	movlw	0
   984     078C  00F1               	movwf	___lwdiv@divisor+1
   985     078D  084C               	movf	main@count+1,w
   986     078E  00F3               	movwf	___lwdiv@dividend+1
   987     078F  084B               	movf	main@count,w
   988     0790  00F2               	movwf	___lwdiv@dividend
   989     0791  120A  118A  25E6  120A  118A  	fcall	___lwdiv
   990     0796  0871               	movf	?___lwdiv+1,w
   991     0797  00FA               	movwf	___lwmod@dividend+1
   992     0798  0870               	movf	?___lwdiv,w
   993     0799  00F9               	movwf	___lwmod@dividend
   994     079A  120A  118A  25AC  120A  118A  	fcall	___lwmod
   995     079F  0877               	movf	?___lwmod,w
   996     07A0  3E2E               	addlw	(low (main@digit| 0))& (0+255)
   997     07A1  0084               	movwf	4
   998     07A2  1383               	bcf	3,7	;select IRP bank0
   999     07A3  0800               	movf	0,w
  1000     07A4  1283               	bcf	3,5	;RP0=0, select bank0
  1001     07A5  1303               	bcf	3,6	;RP1=0, select bank0
  1002     07A6  00BA               	movwf	main@ssd+2
  1003     07A7                     l1056:
  1004                           
  1005                           ;main.c: 54: }
  1006     07A7  300A               	movlw	10
  1007     07A8  00F7               	movwf	___lwmod@divisor
  1008     07A9  3000               	movlw	0
  1009     07AA  00F8               	movwf	___lwmod@divisor+1
  1010     07AB  3064               	movlw	100
  1011     07AC  00F0               	movwf	___lwdiv@divisor
  1012     07AD  3000               	movlw	0
  1013     07AE  00F1               	movwf	___lwdiv@divisor+1
  1014     07AF  084C               	movf	main@count+1,w
  1015     07B0  00F3               	movwf	___lwdiv@dividend+1
  1016     07B1  084B               	movf	main@count,w
  1017     07B2  00F2               	movwf	___lwdiv@dividend
  1018     07B3  120A  118A  25E6  120A  118A  	fcall	___lwdiv
  1019     07B8  0871               	movf	?___lwdiv+1,w
  1020     07B9  00FA               	movwf	___lwmod@dividend+1
  1021     07BA  0870               	movf	?___lwdiv,w
  1022     07BB  00F9               	movwf	___lwmod@dividend
  1023     07BC  120A  118A  25AC  120A  118A  	fcall	___lwmod
  1024     07C1  0877               	movf	?___lwmod,w
  1025     07C2  3E2E               	addlw	(low (main@digit| 0))& (0+255)
  1026     07C3  0084               	movwf	4
  1027     07C4  1383               	bcf	3,7	;select IRP bank0
  1028     07C5  0800               	movf	0,w
  1029     07C6  1283               	bcf	3,5	;RP0=0, select bank0
  1030     07C7  1303               	bcf	3,6	;RP1=0, select bank0
  1031     07C8  00B9               	movwf	main@ssd+1
  1032     07C9                     l1058:
  1033     07C9  30E8               	movlw	232
  1034     07CA  00F0               	movwf	___lwdiv@divisor
  1035     07CB  3003               	movlw	3
  1036     07CC  00F1               	movwf	___lwdiv@divisor+1
  1037     07CD  084C               	movf	main@count+1,w
  1038     07CE  00F3               	movwf	___lwdiv@dividend+1
  1039     07CF  084B               	movf	main@count,w
  1040     07D0  00F2               	movwf	___lwdiv@dividend
  1041     07D1  120A  118A  25E6  120A  118A  	fcall	___lwdiv
  1042     07D6  0870               	movf	?___lwdiv,w
  1043     07D7  3E2E               	addlw	(low (main@digit| 0))& (0+255)
  1044     07D8  0084               	movwf	4
  1045     07D9  1383               	bcf	3,7	;select IRP bank0
  1046     07DA  0800               	movf	0,w
  1047     07DB  1283               	bcf	3,5	;RP0=0, select bank0
  1048     07DC  1303               	bcf	3,6	;RP1=0, select bank0
  1049     07DD  00B8               	movwf	main@ssd
  1050     07DE                     l1060:
  1051     07DE  3038               	movlw	(low (main@ssd| 0))& (0+255)
  1052     07DF  120A  118A  2576  120A  118A  	fcall	_display
  1053     07E4  2EBD               	goto	l1032
  1054     07E5  120A  118A  2800   	ljmp	start
  1055     07E8                     __end_of_main:
  1056                           
  1057                           	psect	text1
  1058     051F                     __ptext1:	
  1059 ;; *************** function _read_digital_keypad *****************
  1060 ;; Defined at:
  1061 ;;		line 10 in file "digital_keypad.c"
  1062 ;; Parameters:    Size  Location     Type
  1063 ;;  mode            1    wreg     unsigned char 
  1064 ;; Auto vars:     Size  Location     Type
  1065 ;;  mode            1    1[COMMON] unsigned char 
  1066 ;; Return value:  Size  Location     Type
  1067 ;;                  1    wreg      unsigned char 
  1068 ;; Registers used:
  1069 ;;		wreg, status,2, status,0
  1070 ;; Tracked objects:
  1071 ;;		On entry : 0/0
  1072 ;;		On exit  : 0/0
  1073 ;;		Unchanged: 0/0
  1074 ;; Data sizes:     COMMON   BANK0   BANK1   BANK3   BANK2
  1075 ;;      Params:         0       0       0       0       0
  1076 ;;      Locals:         1       0       0       0       0
  1077 ;;      Temps:          1       0       0       0       0
  1078 ;;      Totals:         2       0       0       0       0
  1079 ;;Total ram usage:        2 bytes
  1080 ;; Hardware stack levels used: 1
  1081 ;; This function calls:
  1082 ;;		Nothing
  1083 ;; This function is called by:
  1084 ;;		_main
  1085 ;; This function uses a non-reentrant model
  1086 ;;
  1087                           
  1088     051F                     _read_digital_keypad:	
  1089                           ;psect for function _read_digital_keypad
  1090                           
  1091                           
  1092                           ;incstack = 0
  1093                           ; Regs used in _read_digital_keypad: [wreg+status,2+status,0]
  1094                           ;read_digital_keypad@mode stored from wreg
  1095     051F  00F1               	movwf	read_digital_keypad@mode
  1096     0520                     l964:
  1097                           
  1098                           ;digital_keypad.c: 10: unsigned char read_digital_keypad(unsigned char mode);digital_key
      +                          pad.c: 11: {;digital_keypad.c: 12:     static unsigned char once = 1;;digital_keypad.c: 
      +                          14:     if (mode == 0)
  1099     0520  0871               	movf	read_digital_keypad@mode,w
  1100     0521  1D03               	btfss	3,2
  1101     0522  2D24               	goto	u501
  1102     0523  2D25               	goto	u500
  1103     0524                     u501:
  1104     0524  2D2A               	goto	l972
  1105     0525                     u500:
  1106     0525                     l966:
  1107                           
  1108                           ;digital_keypad.c: 15:     {;digital_keypad.c: 16:         return PORTB & 0x3F;
  1109     0525  1283               	bcf	3,5	;RP0=0, select bank0
  1110     0526  1303               	bcf	3,6	;RP1=0, select bank0
  1111     0527  0806               	movf	6,w	;volatile
  1112     0528  393F               	andlw	63
  1113     0529  2D48               	goto	l54
  1114     052A                     l972:
  1115                           
  1116                           ;digital_keypad.c: 19:     {;digital_keypad.c: 20:         if (((PORTB & 0x3F) != 0x3F) 
      +                          && once)
  1117     052A  303F               	movlw	63
  1118     052B  1283               	bcf	3,5	;RP0=0, select bank0
  1119     052C  1303               	bcf	3,6	;RP1=0, select bank0
  1120     052D  0506               	andwf	6,w	;volatile
  1121     052E  00F0               	movwf	??_read_digital_keypad
  1122     052F  303F               	movlw	63
  1123     0530  0670               	xorwf	??_read_digital_keypad,w
  1124     0531  1903               	btfsc	3,2
  1125     0532  2D34               	goto	u511
  1126     0533  2D35               	goto	u510
  1127     0534                     u511:
  1128     0534  2D3C               	goto	l984
  1129     0535                     u510:
  1130     0535                     l974:
  1131     0535  0846               	movf	read_digital_keypad@once,w
  1132     0536  1903               	btfsc	3,2
  1133     0537  2D39               	goto	u521
  1134     0538  2D3A               	goto	u520
  1135     0539                     u521:
  1136     0539  2D3C               	goto	l984
  1137     053A                     u520:
  1138     053A                     l976:
  1139                           
  1140                           ;digital_keypad.c: 21:         {;digital_keypad.c: 22:             once = 0;
  1141     053A  01C6               	clrf	read_digital_keypad@once
  1142     053B  2D25               	goto	l966
  1143     053C                     l984:
  1144     053C  303F               	movlw	63
  1145     053D  0506               	andwf	6,w	;volatile
  1146     053E  00F0               	movwf	??_read_digital_keypad
  1147     053F  303F               	movlw	63
  1148     0540  0670               	xorwf	??_read_digital_keypad,w
  1149     0541  1D03               	btfss	3,2
  1150     0542  2D44               	goto	u531
  1151     0543  2D45               	goto	u530
  1152     0544                     u531:
  1153     0544  2D47               	goto	l988
  1154     0545                     u530:
  1155     0545                     l986:
  1156                           
  1157                           ;digital_keypad.c: 27:         {;digital_keypad.c: 28:             once = 1;
  1158     0545  01C6               	clrf	read_digital_keypad@once
  1159     0546  0AC6               	incf	read_digital_keypad@once,f
  1160     0547                     l988:
  1161                           
  1162                           ;digital_keypad.c: 32:     return 0x3F;
  1163     0547  303F               	movlw	63
  1164     0548                     l54:
  1165     0548  0008               	return
  1166     0549                     __end_of_read_digital_keypad:
  1167                           
  1168                           	psect	text2
  1169     062A                     __ptext2:	
  1170 ;; *************** function _memory_write *****************
  1171 ;; Defined at:
  1172 ;;		line 13 in file "main.c"
  1173 ;; Parameters:    Size  Location     Type
  1174 ;;  count           2    0[BANK0 ] unsigned int 
  1175 ;; Auto vars:     Size  Location     Type
  1176 ;;		None
  1177 ;; Return value:  Size  Location     Type
  1178 ;;                  1    wreg      void 
  1179 ;; Registers used:
  1180 ;;		wreg, status,2, status,0, btemp+1, pclath, cstack
  1181 ;; Tracked objects:
  1182 ;;		On entry : 0/0
  1183 ;;		On exit  : 0/0
  1184 ;;		Unchanged: 0/0
  1185 ;; Data sizes:     COMMON   BANK0   BANK1   BANK3   BANK2
  1186 ;;      Params:         0       2       0       0       0
  1187 ;;      Locals:         0       0       0       0       0
  1188 ;;      Temps:          0       0       0       0       0
  1189 ;;      Totals:         0       2       0       0       0
  1190 ;;Total ram usage:        2 bytes
  1191 ;; Hardware stack levels used: 1
  1192 ;; Hardware stack levels required when called: 1
  1193 ;; This function calls:
  1194 ;;		___lwdiv
  1195 ;;		___lwmod
  1196 ;;		_eeprom_write
  1197 ;; This function is called by:
  1198 ;;		_main
  1199 ;; This function uses a non-reentrant model
  1200 ;;
  1201                           
  1202     062A                     _memory_write:	
  1203                           ;psect for function _memory_write
  1204                           
  1205     062A                     l962:	
  1206                           ;incstack = 0
  1207                           ; Regs used in _memory_write: [wreg+status,2+status,0+btemp+1+pclath+cstack]
  1208                           
  1209                           
  1210                           ;main.c: 13: ;main.c: 14: void main(void);main.c: 15: {
  1211     062A  30E8               	movlw	232
  1212     062B  00F0               	movwf	___lwdiv@divisor
  1213     062C  3003               	movlw	3
  1214     062D  00F1               	movwf	___lwdiv@divisor+1
  1215     062E  1283               	bcf	3,5	;RP0=0, select bank0
  1216     062F  1303               	bcf	3,6	;RP1=0, select bank0
  1217     0630  0821               	movf	memory_write@count+1,w
  1218     0631  00F3               	movwf	___lwdiv@dividend+1
  1219     0632  0820               	movf	memory_write@count,w
  1220     0633  00F2               	movwf	___lwdiv@dividend
  1221     0634  120A  118A  25E6  120A  118A  	fcall	___lwdiv
  1222     0639  0870               	movf	?___lwdiv,w
  1223     063A  00FC               	movwf	eeprom_write@value
  1224     063B  3000               	movlw	0
  1225     063C  120A  118A  2549  120A  118A  	fcall	_eeprom_write
  1226                           
  1227                           ;main.c: 16:     init_config();
  1228     0641  300A               	movlw	10
  1229     0642  00F7               	movwf	___lwmod@divisor
  1230     0643  3000               	movlw	0
  1231     0644  00F8               	movwf	___lwmod@divisor+1
  1232     0645  3064               	movlw	100
  1233     0646  00F0               	movwf	___lwdiv@divisor
  1234     0647  3000               	movlw	0
  1235     0648  00F1               	movwf	___lwdiv@divisor+1
  1236     0649  1283               	bcf	3,5	;RP0=0, select bank0
  1237     064A  1303               	bcf	3,6	;RP1=0, select bank0
  1238     064B  0821               	movf	memory_write@count+1,w
  1239     064C  00F3               	movwf	___lwdiv@dividend+1
  1240     064D  0820               	movf	memory_write@count,w
  1241     064E  00F2               	movwf	___lwdiv@dividend
  1242     064F  120A  118A  25E6  120A  118A  	fcall	___lwdiv
  1243     0654  0871               	movf	?___lwdiv+1,w
  1244     0655  00FA               	movwf	___lwmod@dividend+1
  1245     0656  0870               	movf	?___lwdiv,w
  1246     0657  00F9               	movwf	___lwmod@dividend
  1247     0658  120A  118A  25AC  120A  118A  	fcall	___lwmod
  1248     065D  0877               	movf	?___lwmod,w
  1249     065E  00FC               	movwf	eeprom_write@value
  1250     065F  3001               	movlw	1
  1251     0660  120A  118A  2549  120A  118A  	fcall	_eeprom_write
  1252                           
  1253                           ;main.c: 17:     static unsigned char key;
  1254     0665  300A               	movlw	10
  1255     0666  00F7               	movwf	___lwmod@divisor
  1256     0667  3000               	movlw	0
  1257     0668  00F8               	movwf	___lwmod@divisor+1
  1258     0669  300A               	movlw	10
  1259     066A  00F0               	movwf	___lwdiv@divisor
  1260     066B  3000               	movlw	0
  1261     066C  00F1               	movwf	___lwdiv@divisor+1
  1262     066D  1283               	bcf	3,5	;RP0=0, select bank0
  1263     066E  1303               	bcf	3,6	;RP1=0, select bank0
  1264     066F  0821               	movf	memory_write@count+1,w
  1265     0670  00F3               	movwf	___lwdiv@dividend+1
  1266     0671  0820               	movf	memory_write@count,w
  1267     0672  00F2               	movwf	___lwdiv@dividend
  1268     0673  120A  118A  25E6  120A  118A  	fcall	___lwdiv
  1269     0678  0871               	movf	?___lwdiv+1,w
  1270     0679  00FA               	movwf	___lwmod@dividend+1
  1271     067A  0870               	movf	?___lwdiv,w
  1272     067B  00F9               	movwf	___lwmod@dividend
  1273     067C  120A  118A  25AC  120A  118A  	fcall	___lwmod
  1274     0681  0877               	movf	?___lwmod,w
  1275     0682  00FC               	movwf	eeprom_write@value
  1276     0683  3002               	movlw	2
  1277     0684  120A  118A  2549  120A  118A  	fcall	_eeprom_write
  1278                           
  1279                           ;main.c: 18:     static unsigned int count=0;
  1280     0689  300A               	movlw	10
  1281     068A  00F7               	movwf	___lwmod@divisor
  1282     068B  3000               	movlw	0
  1283     068C  00F8               	movwf	___lwmod@divisor+1
  1284     068D  1283               	bcf	3,5	;RP0=0, select bank0
  1285     068E  1303               	bcf	3,6	;RP1=0, select bank0
  1286     068F  0821               	movf	memory_write@count+1,w
  1287     0690  00FA               	movwf	___lwmod@dividend+1
  1288     0691  0820               	movf	memory_write@count,w
  1289     0692  00F9               	movwf	___lwmod@dividend
  1290     0693  120A  118A  25AC  120A  118A  	fcall	___lwmod
  1291     0698  0877               	movf	?___lwmod,w
  1292     0699  00FC               	movwf	eeprom_write@value
  1293     069A  3003               	movlw	3
  1294     069B  120A  118A  2549  120A  118A  	fcall	_eeprom_write
  1295     06A0                     l18:
  1296     06A0  0008               	return
  1297     06A1                     __end_of_memory_write:
  1298                           
  1299                           	psect	text3
  1300     0549                     __ptext3:	
  1301 ;; *************** function _eeprom_write *****************
  1302 ;; Defined at:
  1303 ;;		line 6 in file "C:\Program Files\Microchip\xc8\v2.41\pic\sources\c90\pic\__eewrite.c"
  1304 ;; Parameters:    Size  Location     Type
  1305 ;;  addr            1    wreg     unsigned char 
  1306 ;;  value           1   12[COMMON] unsigned char 
  1307 ;; Auto vars:     Size  Location     Type
  1308 ;;  addr            1   13[COMMON] unsigned char 
  1309 ;; Return value:  Size  Location     Type
  1310 ;;                  1    wreg      void 
  1311 ;; Registers used:
  1312 ;;		wreg, status,2, status,0, btemp+1
  1313 ;; Tracked objects:
  1314 ;;		On entry : 0/0
  1315 ;;		On exit  : 0/0
  1316 ;;		Unchanged: 0/0
  1317 ;; Data sizes:     COMMON   BANK0   BANK1   BANK3   BANK2
  1318 ;;      Params:         1       0       0       0       0
  1319 ;;      Locals:         1       0       0       0       0
  1320 ;;      Temps:          0       0       0       0       0
  1321 ;;      Totals:         2       0       0       0       0
  1322 ;;Total ram usage:        2 bytes
  1323 ;; Hardware stack levels used: 1
  1324 ;; This function calls:
  1325 ;;		Nothing
  1326 ;; This function is called by:
  1327 ;;		_memory_write
  1328 ;; This function uses a non-reentrant model
  1329 ;;
  1330                           
  1331     0549                     _eeprom_write:	
  1332                           ;psect for function _eeprom_write
  1333                           
  1334                           
  1335                           ;incstack = 0
  1336                           ; Regs used in _eeprom_write: [wreg+status,2+status,0+btemp+1]
  1337                           ;eeprom_write@addr stored from wreg
  1338     0549  00FD               	movwf	eeprom_write@addr
  1339     054A                     l189:	
  1340                           ;C:\Program Files\Microchip\xc8\v2.41\pic\sources\c90\pic\__eewrite.c: 6: eeprom_write(u
      +                          nsigned char addr, unsigned char value);C:\Program Files\Microchip\xc8\v2.41\pic\sources
      +                          \c90\pic\__eewrite.c: 7: {;C:\Program Files\Microchip\xc8\v2.41\pic\sources\c90\pic\__ee
      +                          write.c: 8:  do{ while (EECON1bits.WR) { continue; } EEADR = (addr); EEDATA = (value); E
      +                          ECON1 &= 0x3F; STATUSbits.CARRY = 0; if (INTCONbits.GIE) { STATUSbits.CARRY = 1; } INTCO
      +                          Nbits.GIE = 0; EECON1bits.WREN = 1; EECON2 = 0x55; EECON2 = 0xAA; EECON1bits.WR = 1; EEC
      +                          ON1bits.WREN = 0; if (STATUSbits.CARRY) { INTCONbits.GIE = 1; } } while (0);
  1341                           
  1342     054A                     l190:
  1343     054A  1683               	bsf	3,5	;RP0=1, select bank3
  1344     054B  1703               	bsf	3,6	;RP1=1, select bank3
  1345     054C  188C               	btfsc	12,1	;volsfr
  1346     054D  2D4F               	goto	u341
  1347     054E  2D50               	goto	u340
  1348     054F                     u341:
  1349     054F  2D4A               	goto	l190
  1350     0550                     u340:
  1351     0550                     l892:
  1352     0550  087D               	movf	eeprom_write@addr,w
  1353     0551  1283               	bcf	3,5	;RP0=0, select bank2
  1354     0552  1703               	bsf	3,6	;RP1=1, select bank2
  1355     0553  008D               	movwf	13	;volatile
  1356     0554  087C               	movf	eeprom_write@value,w
  1357     0555  008C               	movwf	12	;volatile
  1358     0556                     l894:
  1359     0556  303F               	movlw	63
  1360     0557  00FF               	movwf	btemp+1
  1361     0558  087F               	movf	btemp+1,w
  1362     0559  1683               	bsf	3,5	;RP0=1, select bank3
  1363     055A  1703               	bsf	3,6	;RP1=1, select bank3
  1364     055B  058C               	andwf	12,f	;volsfr
  1365     055C                     l896:
  1366     055C  1283               	bcf	3,5	;RP0=0, select bank0
  1367     055D  1303               	bcf	3,6	;RP1=0, select bank0
  1368     055E  1003               	bcf	3,0	;volatile
  1369     055F                     l898:
  1370     055F  1F8B               	btfss	11,7	;volatile
  1371     0560  2D62               	goto	u351
  1372     0561  2D63               	goto	u350
  1373     0562                     u351:
  1374     0562  2D64               	goto	l193
  1375     0563                     u350:
  1376     0563                     l900:
  1377     0563  1403               	bsf	3,0	;volatile
  1378     0564                     l193:
  1379     0564  138B               	bcf	11,7	;volatile
  1380     0565  1683               	bsf	3,5	;RP0=1, select bank3
  1381     0566  1703               	bsf	3,6	;RP1=1, select bank3
  1382     0567  150C               	bsf	12,2	;volsfr
  1383     0568                     l902:
  1384     0568  3055               	movlw	85
  1385     0569  008D               	movwf	13	;volsfr
  1386     056A  30AA               	movlw	170
  1387     056B  008D               	movwf	13	;volsfr
  1388     056C                     l904:
  1389     056C  148C               	bsf	12,1	;volsfr
  1390     056D                     l906:
  1391     056D  110C               	bcf	12,2	;volsfr
  1392     056E                     l908:
  1393     056E  1283               	bcf	3,5	;RP0=0, select bank0
  1394     056F  1303               	bcf	3,6	;RP1=0, select bank0
  1395     0570  1C03               	btfss	3,0	;volatile
  1396     0571  2D73               	goto	u361
  1397     0572  2D74               	goto	u360
  1398     0573                     u361:
  1399     0573  2D75               	goto	l196
  1400     0574                     u360:
  1401     0574                     l910:
  1402     0574  178B               	bsf	11,7	;volatile
  1403     0575                     l196:
  1404     0575  0008               	return
  1405     0576                     __end_of_eeprom_write:
  1406                           
  1407                           	psect	text4
  1408     05AC                     __ptext4:	
  1409 ;; *************** function ___lwmod *****************
  1410 ;; Defined at:
  1411 ;;		line 5 in file "C:\Program Files\Microchip\xc8\v2.41\pic\sources\c90\common\lwmod.c"
  1412 ;; Parameters:    Size  Location     Type
  1413 ;;  divisor         2    7[COMMON] unsigned int 
  1414 ;;  dividend        2    9[COMMON] unsigned int 
  1415 ;; Auto vars:     Size  Location     Type
  1416 ;;  counter         1   11[COMMON] unsigned char 
  1417 ;; Return value:  Size  Location     Type
  1418 ;;                  2    7[COMMON] unsigned int 
  1419 ;; Registers used:
  1420 ;;		wreg, status,2, status,0, btemp+1
  1421 ;; Tracked objects:
  1422 ;;		On entry : 0/0
  1423 ;;		On exit  : 0/0
  1424 ;;		Unchanged: 0/0
  1425 ;; Data sizes:     COMMON   BANK0   BANK1   BANK3   BANK2
  1426 ;;      Params:         4       0       0       0       0
  1427 ;;      Locals:         1       0       0       0       0
  1428 ;;      Temps:          0       0       0       0       0
  1429 ;;      Totals:         5       0       0       0       0
  1430 ;;Total ram usage:        5 bytes
  1431 ;; Hardware stack levels used: 1
  1432 ;; This function calls:
  1433 ;;		Nothing
  1434 ;; This function is called by:
  1435 ;;		_memory_write
  1436 ;;		_main
  1437 ;; This function uses a non-reentrant model
  1438 ;;
  1439                           
  1440     05AC                     ___lwmod:	
  1441                           ;psect for function ___lwmod
  1442                           
  1443     05AC                     l938:	
  1444                           ;incstack = 0
  1445                           ; Regs used in ___lwmod: [wreg+status,2+status,0+btemp+1]
  1446                           
  1447     05AC  0877               	movf	___lwmod@divisor,w
  1448     05AD  0478               	iorwf	___lwmod@divisor+1,w
  1449     05AE  1903               	btfsc	3,2
  1450     05AF  2DB1               	goto	u441
  1451     05B0  2DB2               	goto	u440
  1452     05B1                     u441:
  1453     05B1  2DE1               	goto	l956
  1454     05B2                     u440:
  1455     05B2                     l940:
  1456     05B2  01FB               	clrf	___lwmod@counter
  1457     05B3  0AFB               	incf	___lwmod@counter,f
  1458     05B4  2DC0               	goto	l946
  1459     05B5                     l942:
  1460     05B5  3001               	movlw	1
  1461     05B6                     u455:
  1462     05B6  1003               	clrc
  1463     05B7  0DF7               	rlf	___lwmod@divisor,f
  1464     05B8  0DF8               	rlf	___lwmod@divisor+1,f
  1465     05B9  3EFF               	addlw	-1
  1466     05BA  1D03               	skipz
  1467     05BB  2DB6               	goto	u455
  1468     05BC                     l944:
  1469     05BC  3001               	movlw	1
  1470     05BD  00FF               	movwf	btemp+1
  1471     05BE  087F               	movf	btemp+1,w
  1472     05BF  07FB               	addwf	___lwmod@counter,f
  1473     05C0                     l946:
  1474     05C0  1FF8               	btfss	___lwmod@divisor+1,7
  1475     05C1  2DC3               	goto	u461
  1476     05C2  2DC4               	goto	u460
  1477     05C3                     u461:
  1478     05C3  2DB5               	goto	l942
  1479     05C4                     u460:
  1480     05C4                     l948:
  1481     05C4  0878               	movf	___lwmod@divisor+1,w
  1482     05C5  027A               	subwf	___lwmod@dividend+1,w
  1483     05C6  1D03               	skipz
  1484     05C7  2DCA               	goto	u475
  1485     05C8  0877               	movf	___lwmod@divisor,w
  1486     05C9  0279               	subwf	___lwmod@dividend,w
  1487     05CA                     u475:
  1488     05CA  1C03               	skipc
  1489     05CB  2DCD               	goto	u471
  1490     05CC  2DCE               	goto	u470
  1491     05CD                     u471:
  1492     05CD  2DD4               	goto	l952
  1493     05CE                     u470:
  1494     05CE                     l950:
  1495     05CE  0877               	movf	___lwmod@divisor,w
  1496     05CF  02F9               	subwf	___lwmod@dividend,f
  1497     05D0  0878               	movf	___lwmod@divisor+1,w
  1498     05D1  1C03               	skipc
  1499     05D2  03FA               	decf	___lwmod@dividend+1,f
  1500     05D3  02FA               	subwf	___lwmod@dividend+1,f
  1501     05D4                     l952:
  1502     05D4  3001               	movlw	1
  1503     05D5                     u485:
  1504     05D5  1003               	clrc
  1505     05D6  0CF8               	rrf	___lwmod@divisor+1,f
  1506     05D7  0CF7               	rrf	___lwmod@divisor,f
  1507     05D8  3EFF               	addlw	-1
  1508     05D9  1D03               	skipz
  1509     05DA  2DD5               	goto	u485
  1510     05DB                     l954:
  1511     05DB  3001               	movlw	1
  1512     05DC  02FB               	subwf	___lwmod@counter,f
  1513     05DD  1D03               	btfss	3,2
  1514     05DE  2DE0               	goto	u491
  1515     05DF  2DE1               	goto	u490
  1516     05E0                     u491:
  1517     05E0  2DC4               	goto	l948
  1518     05E1                     u490:
  1519     05E1                     l956:
  1520     05E1  087A               	movf	___lwmod@dividend+1,w
  1521     05E2  00F8               	movwf	?___lwmod+1
  1522     05E3  0879               	movf	___lwmod@dividend,w
  1523     05E4  00F7               	movwf	?___lwmod
  1524     05E5                     l482:
  1525     05E5  0008               	return
  1526     05E6                     __end_of___lwmod:
  1527                           
  1528                           	psect	text5
  1529     05E6                     __ptext5:	
  1530 ;; *************** function ___lwdiv *****************
  1531 ;; Defined at:
  1532 ;;		line 5 in file "C:\Program Files\Microchip\xc8\v2.41\pic\sources\c90\common\lwdiv.c"
  1533 ;; Parameters:    Size  Location     Type
  1534 ;;  divisor         2    0[COMMON] unsigned int 
  1535 ;;  dividend        2    2[COMMON] unsigned int 
  1536 ;; Auto vars:     Size  Location     Type
  1537 ;;  quotient        2    4[COMMON] unsigned int 
  1538 ;;  counter         1    6[COMMON] unsigned char 
  1539 ;; Return value:  Size  Location     Type
  1540 ;;                  2    0[COMMON] unsigned int 
  1541 ;; Registers used:
  1542 ;;		wreg, status,2, status,0, btemp+1
  1543 ;; Tracked objects:
  1544 ;;		On entry : 0/0
  1545 ;;		On exit  : 0/0
  1546 ;;		Unchanged: 0/0
  1547 ;; Data sizes:     COMMON   BANK0   BANK1   BANK3   BANK2
  1548 ;;      Params:         4       0       0       0       0
  1549 ;;      Locals:         3       0       0       0       0
  1550 ;;      Temps:          0       0       0       0       0
  1551 ;;      Totals:         7       0       0       0       0
  1552 ;;Total ram usage:        7 bytes
  1553 ;; Hardware stack levels used: 1
  1554 ;; This function calls:
  1555 ;;		Nothing
  1556 ;; This function is called by:
  1557 ;;		_memory_write
  1558 ;;		_main
  1559 ;; This function uses a non-reentrant model
  1560 ;;
  1561                           
  1562     05E6                     ___lwdiv:	
  1563                           ;psect for function ___lwdiv
  1564                           
  1565     05E6                     l912:	
  1566                           ;incstack = 0
  1567                           ; Regs used in ___lwdiv: [wreg+status,2+status,0+btemp+1]
  1568                           
  1569     05E6  01F4               	clrf	___lwdiv@quotient
  1570     05E7  01F5               	clrf	___lwdiv@quotient+1
  1571     05E8                     l914:
  1572     05E8  0870               	movf	___lwdiv@divisor,w
  1573     05E9  0471               	iorwf	___lwdiv@divisor+1,w
  1574     05EA  1903               	btfsc	3,2
  1575     05EB  2DED               	goto	u371
  1576     05EC  2DEE               	goto	u370
  1577     05ED                     u371:
  1578     05ED  2E25               	goto	l934
  1579     05EE                     u370:
  1580     05EE                     l916:
  1581     05EE  01F6               	clrf	___lwdiv@counter
  1582     05EF  0AF6               	incf	___lwdiv@counter,f
  1583     05F0  2DFC               	goto	l922
  1584     05F1                     l918:
  1585     05F1  3001               	movlw	1
  1586     05F2                     u385:
  1587     05F2  1003               	clrc
  1588     05F3  0DF0               	rlf	___lwdiv@divisor,f
  1589     05F4  0DF1               	rlf	___lwdiv@divisor+1,f
  1590     05F5  3EFF               	addlw	-1
  1591     05F6  1D03               	skipz
  1592     05F7  2DF2               	goto	u385
  1593     05F8                     l920:
  1594     05F8  3001               	movlw	1
  1595     05F9  00FF               	movwf	btemp+1
  1596     05FA  087F               	movf	btemp+1,w
  1597     05FB  07F6               	addwf	___lwdiv@counter,f
  1598     05FC                     l922:
  1599     05FC  1FF1               	btfss	___lwdiv@divisor+1,7
  1600     05FD  2DFF               	goto	u391
  1601     05FE  2E00               	goto	u390
  1602     05FF                     u391:
  1603     05FF  2DF1               	goto	l918
  1604     0600                     u390:
  1605     0600                     l924:
  1606     0600  3001               	movlw	1
  1607     0601                     u405:
  1608     0601  1003               	clrc
  1609     0602  0DF4               	rlf	___lwdiv@quotient,f
  1610     0603  0DF5               	rlf	___lwdiv@quotient+1,f
  1611     0604  3EFF               	addlw	-1
  1612     0605  1D03               	skipz
  1613     0606  2E01               	goto	u405
  1614     0607  0871               	movf	___lwdiv@divisor+1,w
  1615     0608  0273               	subwf	___lwdiv@dividend+1,w
  1616     0609  1D03               	skipz
  1617     060A  2E0D               	goto	u415
  1618     060B  0870               	movf	___lwdiv@divisor,w
  1619     060C  0272               	subwf	___lwdiv@dividend,w
  1620     060D                     u415:
  1621     060D  1C03               	skipc
  1622     060E  2E10               	goto	u411
  1623     060F  2E11               	goto	u410
  1624     0610                     u411:
  1625     0610  2E18               	goto	l930
  1626     0611                     u410:
  1627     0611                     l926:
  1628     0611  0870               	movf	___lwdiv@divisor,w
  1629     0612  02F2               	subwf	___lwdiv@dividend,f
  1630     0613  0871               	movf	___lwdiv@divisor+1,w
  1631     0614  1C03               	skipc
  1632     0615  03F3               	decf	___lwdiv@dividend+1,f
  1633     0616  02F3               	subwf	___lwdiv@dividend+1,f
  1634     0617                     l928:
  1635     0617  1474               	bsf	___lwdiv@quotient,0
  1636     0618                     l930:
  1637     0618  3001               	movlw	1
  1638     0619                     u425:
  1639     0619  1003               	clrc
  1640     061A  0CF1               	rrf	___lwdiv@divisor+1,f
  1641     061B  0CF0               	rrf	___lwdiv@divisor,f
  1642     061C  3EFF               	addlw	-1
  1643     061D  1D03               	skipz
  1644     061E  2E19               	goto	u425
  1645     061F                     l932:
  1646     061F  3001               	movlw	1
  1647     0620  02F6               	subwf	___lwdiv@counter,f
  1648     0621  1D03               	btfss	3,2
  1649     0622  2E24               	goto	u431
  1650     0623  2E25               	goto	u430
  1651     0624                     u431:
  1652     0624  2E00               	goto	l924
  1653     0625                     u430:
  1654     0625                     l934:
  1655     0625  0875               	movf	___lwdiv@quotient+1,w
  1656     0626  00F1               	movwf	?___lwdiv+1
  1657     0627  0874               	movf	___lwdiv@quotient,w
  1658     0628  00F0               	movwf	?___lwdiv
  1659     0629                     l472:
  1660     0629  0008               	return
  1661     062A                     __end_of___lwdiv:
  1662                           
  1663                           	psect	text6
  1664     04AE                     __ptext6:	
  1665 ;; *************** function _init_config *****************
  1666 ;; Defined at:
  1667 ;;		line 7 in file "main.c"
  1668 ;; Parameters:    Size  Location     Type
  1669 ;;		None
  1670 ;; Auto vars:     Size  Location     Type
  1671 ;;		None
  1672 ;; Return value:  Size  Location     Type
  1673 ;;                  1    wreg      void 
  1674 ;; Registers used:
  1675 ;;		wreg, status,2, status,0, pclath, cstack
  1676 ;; Tracked objects:
  1677 ;;		On entry : 0/0
  1678 ;;		On exit  : 0/0
  1679 ;;		Unchanged: 0/0
  1680 ;; Data sizes:     COMMON   BANK0   BANK1   BANK3   BANK2
  1681 ;;      Params:         0       0       0       0       0
  1682 ;;      Locals:         0       0       0       0       0
  1683 ;;      Temps:          0       0       0       0       0
  1684 ;;      Totals:         0       0       0       0       0
  1685 ;;Total ram usage:        0 bytes
  1686 ;; Hardware stack levels used: 1
  1687 ;; Hardware stack levels required when called: 1
  1688 ;; This function calls:
  1689 ;;		_init_digital_keypad
  1690 ;;		_init_ssd
  1691 ;; This function is called by:
  1692 ;;		_main
  1693 ;; This function uses a non-reentrant model
  1694 ;;
  1695                           
  1696     04AE                     _init_config:	
  1697                           ;psect for function _init_config
  1698                           
  1699     04AE                     l960:	
  1700                           ;incstack = 0
  1701                           ; Regs used in _init_config: [wreg+status,2+status,0+pclath+cstack]
  1702                           
  1703                           
  1704                           ;main.c: 9:     eeprom_write(0x01,((count/100)%10));
  1705     04AE  120A  118A  24A8  120A  118A  	fcall	_init_digital_keypad
  1706                           
  1707                           ;main.c: 10:     eeprom_write(0x02,((count/10)%10));
  1708     04B3  120A  118A  24C4  120A  118A  	fcall	_init_ssd
  1709     04B8                     l15:
  1710     04B8  0008               	return
  1711     04B9                     __end_of_init_config:
  1712                           
  1713                           	psect	text7
  1714     04C4                     __ptext7:	
  1715 ;; *************** function _init_ssd *****************
  1716 ;; Defined at:
  1717 ;;		line 4 in file "ssd.c"
  1718 ;; Parameters:    Size  Location     Type
  1719 ;;		None
  1720 ;; Auto vars:     Size  Location     Type
  1721 ;;		None
  1722 ;; Return value:  Size  Location     Type
  1723 ;;                  1    wreg      void 
  1724 ;; Registers used:
  1725 ;;		wreg, status,2
  1726 ;; Tracked objects:
  1727 ;;		On entry : 0/0
  1728 ;;		On exit  : 0/0
  1729 ;;		Unchanged: 0/0
  1730 ;; Data sizes:     COMMON   BANK0   BANK1   BANK3   BANK2
  1731 ;;      Params:         0       0       0       0       0
  1732 ;;      Locals:         0       0       0       0       0
  1733 ;;      Temps:          0       0       0       0       0
  1734 ;;      Totals:         0       0       0       0       0
  1735 ;;Total ram usage:        0 bytes
  1736 ;; Hardware stack levels used: 1
  1737 ;; This function calls:
  1738 ;;		Nothing
  1739 ;; This function is called by:
  1740 ;;		_init_config
  1741 ;; This function uses a non-reentrant model
  1742 ;;
  1743                           
  1744     04C4                     _init_ssd:	
  1745                           ;psect for function _init_ssd
  1746                           
  1747     04C4                     l886:	
  1748                           ;incstack = 0
  1749                           ; Regs used in _init_ssd: [wreg+status,2]
  1750                           
  1751                           
  1752                           ;ssd.c: 7:     TRISD = 0x00;
  1753     04C4  1683               	bsf	3,5	;RP0=1, select bank1
  1754     04C5  1303               	bcf	3,6	;RP1=0, select bank1
  1755     04C6  0188               	clrf	8	;volatile
  1756     04C7                     l888:
  1757                           
  1758                           ;ssd.c: 10:     TRISA = TRISA & 0xC3;
  1759     04C7  0805               	movf	5,w	;volatile
  1760     04C8  39C3               	andlw	195
  1761     04C9  0085               	movwf	5	;volatile
  1762     04CA                     l890:
  1763                           
  1764                           ;ssd.c: 12:     PORTA = PORTA & 0xC3;
  1765     04CA  1283               	bcf	3,5	;RP0=0, select bank0
  1766     04CB  1303               	bcf	3,6	;RP1=0, select bank0
  1767     04CC  0805               	movf	5,w	;volatile
  1768     04CD  39C3               	andlw	195
  1769     04CE  0085               	movwf	5	;volatile
  1770     04CF                     l69:
  1771     04CF  0008               	return
  1772     04D0                     __end_of_init_ssd:
  1773                           
  1774                           	psect	text8
  1775     04A8                     __ptext8:	
  1776 ;; *************** function _init_digital_keypad *****************
  1777 ;; Defined at:
  1778 ;;		line 4 in file "digital_keypad.c"
  1779 ;; Parameters:    Size  Location     Type
  1780 ;;		None
  1781 ;; Auto vars:     Size  Location     Type
  1782 ;;		None
  1783 ;; Return value:  Size  Location     Type
  1784 ;;                  1    wreg      void 
  1785 ;; Registers used:
  1786 ;;		wreg, status,2
  1787 ;; Tracked objects:
  1788 ;;		On entry : 0/0
  1789 ;;		On exit  : 0/0
  1790 ;;		Unchanged: 0/0
  1791 ;; Data sizes:     COMMON   BANK0   BANK1   BANK3   BANK2
  1792 ;;      Params:         0       0       0       0       0
  1793 ;;      Locals:         0       0       0       0       0
  1794 ;;      Temps:          0       0       0       0       0
  1795 ;;      Totals:         0       0       0       0       0
  1796 ;;Total ram usage:        0 bytes
  1797 ;; Hardware stack levels used: 1
  1798 ;; This function calls:
  1799 ;;		Nothing
  1800 ;; This function is called by:
  1801 ;;		_init_config
  1802 ;; This function uses a non-reentrant model
  1803 ;;
  1804                           
  1805     04A8                     _init_digital_keypad:	
  1806                           ;psect for function _init_digital_keypad
  1807                           
  1808     04A8                     l884:	
  1809                           ;incstack = 0
  1810                           ; Regs used in _init_digital_keypad: [wreg+status,2]
  1811                           
  1812                           
  1813                           ;digital_keypad.c: 7:     TRISB = TRISB | 0x3F;
  1814     04A8  1683               	bsf	3,5	;RP0=1, select bank1
  1815     04A9  1303               	bcf	3,6	;RP1=0, select bank1
  1816     04AA  0806               	movf	6,w	;volatile
  1817     04AB  383F               	iorlw	63
  1818     04AC  0086               	movwf	6	;volatile
  1819     04AD                     l48:
  1820     04AD  0008               	return
  1821     04AE                     __end_of_init_digital_keypad:
  1822                           
  1823                           	psect	text9
  1824     04E3                     __ptext9:	
  1825 ;; *************** function _eeprom_read *****************
  1826 ;; Defined at:
  1827 ;;		line 6 in file "C:\Program Files\Microchip\xc8\v2.41\pic\sources\c90\pic\__eeread.c"
  1828 ;; Parameters:    Size  Location     Type
  1829 ;;  addr            1    wreg     unsigned char 
  1830 ;; Auto vars:     Size  Location     Type
  1831 ;;  addr            1    0[COMMON] unsigned char 
  1832 ;; Return value:  Size  Location     Type
  1833 ;;                  1    wreg      unsigned char 
  1834 ;; Registers used:
  1835 ;;		wreg, status,2, status,0, btemp+1
  1836 ;; Tracked objects:
  1837 ;;		On entry : 0/0
  1838 ;;		On exit  : 0/0
  1839 ;;		Unchanged: 0/0
  1840 ;; Data sizes:     COMMON   BANK0   BANK1   BANK3   BANK2
  1841 ;;      Params:         0       0       0       0       0
  1842 ;;      Locals:         1       0       0       0       0
  1843 ;;      Temps:          0       0       0       0       0
  1844 ;;      Totals:         1       0       0       0       0
  1845 ;;Total ram usage:        1 bytes
  1846 ;; Hardware stack levels used: 1
  1847 ;; This function calls:
  1848 ;;		Nothing
  1849 ;; This function is called by:
  1850 ;;		_main
  1851 ;; This function uses a non-reentrant model
  1852 ;;
  1853                           
  1854     04E3                     _eeprom_read:	
  1855                           ;psect for function _eeprom_read
  1856                           
  1857                           
  1858                           ;incstack = 0
  1859                           ; Regs used in _eeprom_read: [wreg+status,2+status,0+btemp+1]
  1860                           ;eeprom_read@addr stored from wreg
  1861     04E3  00F0               	movwf	eeprom_read@addr
  1862     04E4                     l170:	
  1863                           ;C:\Program Files\Microchip\xc8\v2.41\pic\sources\c90\pic\__eeread.c: 6: eeprom_read(uns
      +                          igned char addr);C:\Program Files\Microchip\xc8\v2.41\pic\sources\c90\pic\__eeread.c: 7:
      +                           {;C:\Program Files\Microchip\xc8\v2.41\pic\sources\c90\pic\__eeread.c: 8:  do
  1864                           
  1865     04E4  0064               	clrwdt	;# 
  1866     04E5  1683               	bsf	3,5	;RP0=1, select bank3
  1867     04E6  1703               	bsf	3,6	;RP1=1, select bank3
  1868     04E7  188C               	btfsc	12,1	;volsfr
  1869     04E8  2CEA               	goto	u541
  1870     04E9  2CEB               	goto	u540
  1871     04EA                     u541:
  1872     04EA  2CE4               	goto	l170
  1873     04EB                     u540:
  1874     04EB                     l992:
  1875                           
  1876                           ;C:\Program Files\Microchip\xc8\v2.41\pic\sources\c90\pic\__eeread.c: 18:  return ( EEAD
      +                          R = addr, EECON1 &= 0x3F, EECON1bits.RD = 1, EEDATA);
  1877     04EB  0870               	movf	eeprom_read@addr,w
  1878     04EC  1283               	bcf	3,5	;RP0=0, select bank2
  1879     04ED  1703               	bsf	3,6	;RP1=1, select bank2
  1880     04EE  008D               	movwf	13	;volatile
  1881     04EF  303F               	movlw	63
  1882     04F0  00FF               	movwf	btemp+1
  1883     04F1  087F               	movf	btemp+1,w
  1884     04F2  1683               	bsf	3,5	;RP0=1, select bank3
  1885     04F3  1703               	bsf	3,6	;RP1=1, select bank3
  1886     04F4  058C               	andwf	12,f	;volsfr
  1887     04F5  140C               	bsf	12,0	;volsfr
  1888     04F6  1283               	bcf	3,5	;RP0=0, select bank2
  1889     04F7  1703               	bsf	3,6	;RP1=1, select bank2
  1890     04F8  080C               	movf	12,w	;volatile
  1891     04F9                     l172:
  1892     04F9  0008               	return
  1893     04FA                     __end_of_eeprom_read:
  1894                           
  1895                           	psect	text10
  1896     0576                     __ptext10:	
  1897 ;; *************** function _display *****************
  1898 ;; Defined at:
  1899 ;;		line 15 in file "ssd.c"
  1900 ;; Parameters:    Size  Location     Type
  1901 ;;  data            1    wreg     PTR unsigned char 
  1902 ;;		 -> main@ssd(4), 
  1903 ;; Auto vars:     Size  Location     Type
  1904 ;;  data            1    3[COMMON] PTR unsigned char 
  1905 ;;		 -> main@ssd(4), 
  1906 ;;  wait            2    1[COMMON] unsigned int 
  1907 ;;  digit           1    4[COMMON] unsigned char 
  1908 ;; Return value:  Size  Location     Type
  1909 ;;                  1    wreg      void 
  1910 ;; Registers used:
  1911 ;;		wreg, fsr0l, fsr0h, status,2, status,0, btemp+1
  1912 ;; Tracked objects:
  1913 ;;		On entry : 0/0
  1914 ;;		On exit  : 0/0
  1915 ;;		Unchanged: 0/0
  1916 ;; Data sizes:     COMMON   BANK0   BANK1   BANK3   BANK2
  1917 ;;      Params:         0       0       0       0       0
  1918 ;;      Locals:         4       0       0       0       0
  1919 ;;      Temps:          1       0       0       0       0
  1920 ;;      Totals:         5       0       0       0       0
  1921 ;;Total ram usage:        5 bytes
  1922 ;; Hardware stack levels used: 1
  1923 ;; This function calls:
  1924 ;;		Nothing
  1925 ;; This function is called by:
  1926 ;;		_main
  1927 ;; This function uses a non-reentrant model
  1928 ;;
  1929                           
  1930     0576                     _display:	
  1931                           ;psect for function _display
  1932                           
  1933                           
  1934                           ;incstack = 0
  1935                           ; Regs used in _display: [wreg-fsr0h+status,2+status,0+btemp+1]
  1936                           ;display@data stored from wreg
  1937     0576  00F3               	movwf	display@data
  1938     0577                     l996:
  1939                           
  1940                           ;ssd.c: 15: void display(unsigned char data[]);ssd.c: 16: {;ssd.c: 17:     unsigned char
      +                           digit;;ssd.c: 19:     for (digit = 0; digit < 4; digit++)
  1941     0577  01F4               	clrf	display@digit
  1942     0578                     l1002:
  1943                           
  1944                           ;ssd.c: 20:     {;ssd.c: 21:         PORTD = data[digit];
  1945     0578  0874               	movf	display@digit,w
  1946     0579  0773               	addwf	display@data,w
  1947     057A  00F0               	movwf	??_display
  1948     057B  0870               	movf	??_display,w
  1949     057C  0084               	movwf	4
  1950     057D  1383               	bcf	3,7	;select IRP bank0
  1951     057E  0800               	movf	0,w
  1952     057F  1283               	bcf	3,5	;RP0=0, select bank0
  1953     0580  1303               	bcf	3,6	;RP1=0, select bank0
  1954     0581  0088               	movwf	8	;volatile
  1955     0582                     l1004:
  1956                           
  1957                           ;ssd.c: 22:         PORTA = (PORTA & 0xC3) | (0x04 << digit);
  1958     0582  3004               	movlw	4
  1959     0583  00F0               	movwf	??_display
  1960     0584  0A74               	incf	display@digit,w
  1961     0585  2D88               	goto	u554
  1962     0586                     u555:
  1963     0586  1003               	clrc
  1964     0587  0DF0               	rlf	??_display,f
  1965     0588                     u554:
  1966     0588  3EFF               	addlw	-1
  1967     0589  1D03               	skipz
  1968     058A  2D86               	goto	u555
  1969     058B  0805               	movf	5,w	;volatile
  1970     058C  39C3               	andlw	195
  1971     058D  0470               	iorwf	??_display,w
  1972     058E  0085               	movwf	5	;volatile
  1973     058F                     l1006:
  1974                           
  1975                           ;ssd.c: 24:         for (unsigned int wait = 400; wait--; );
  1976     058F  3090               	movlw	144
  1977     0590  00F1               	movwf	display@wait
  1978     0591  3001               	movlw	1
  1979     0592  00F2               	movwf	display@wait+1
  1980     0593                     l1008:
  1981     0593  3001               	movlw	1
  1982     0594  02F1               	subwf	display@wait,f
  1983     0595  3000               	movlw	0
  1984     0596  1C03               	skipc
  1985     0597  03F2               	decf	display@wait+1,f
  1986     0598  02F2               	subwf	display@wait+1,f
  1987     0599  0A71               	incf	display@wait,w
  1988     059A  1D03               	skipz
  1989     059B  2DA0               	goto	u561
  1990     059C  0A72               	incf	display@wait+1,w
  1991     059D  1D03               	btfss	3,2
  1992     059E  2DA0               	goto	u561
  1993     059F  2DA1               	goto	u560
  1994     05A0                     u561:
  1995     05A0  2D93               	goto	l1008
  1996     05A1                     u560:
  1997     05A1                     l1010:
  1998                           
  1999                           ;ssd.c: 25:     }
  2000     05A1  3001               	movlw	1
  2001     05A2  00FF               	movwf	btemp+1
  2002     05A3  087F               	movf	btemp+1,w
  2003     05A4  07F4               	addwf	display@digit,f
  2004     05A5                     l1012:
  2005     05A5  3004               	movlw	4
  2006     05A6  0274               	subwf	display@digit,w
  2007     05A7  1C03               	skipc
  2008     05A8  2DAA               	goto	u571
  2009     05A9  2DAB               	goto	u570
  2010     05AA                     u571:
  2011     05AA  2D78               	goto	l1002
  2012     05AB                     u570:
  2013     05AB                     l77:
  2014     05AB  0008               	return
  2015     05AC                     __end_of_display:
  2016                           
  2017                           	psect	text11
  2018     04FA                     __ptext11:	
  2019 ;; *************** function ___wmul *****************
  2020 ;; Defined at:
  2021 ;;		line 15 in file "C:\Program Files\Microchip\xc8\v2.41\pic\sources\c90\common\Umul16.c"
  2022 ;; Parameters:    Size  Location     Type
  2023 ;;  multiplier      2    1[COMMON] unsigned int 
  2024 ;;  multiplicand    2    3[COMMON] unsigned int 
  2025 ;; Auto vars:     Size  Location     Type
  2026 ;;  product         2    5[COMMON] unsigned int 
  2027 ;; Return value:  Size  Location     Type
  2028 ;;                  2    1[COMMON] unsigned int 
  2029 ;; Registers used:
  2030 ;;		wreg, status,2, status,0
  2031 ;; Tracked objects:
  2032 ;;		On entry : 0/0
  2033 ;;		On exit  : 0/0
  2034 ;;		Unchanged: 0/0
  2035 ;; Data sizes:     COMMON   BANK0   BANK1   BANK3   BANK2
  2036 ;;      Params:         4       0       0       0       0
  2037 ;;      Locals:         2       0       0       0       0
  2038 ;;      Temps:          0       0       0       0       0
  2039 ;;      Totals:         6       0       0       0       0
  2040 ;;Total ram usage:        6 bytes
  2041 ;; Hardware stack levels used: 1
  2042 ;; This function calls:
  2043 ;;		Nothing
  2044 ;; This function is called by:
  2045 ;;		_main
  2046 ;; This function uses a non-reentrant model
  2047 ;;
  2048                           
  2049     04FA                     ___wmul:	
  2050                           ;psect for function ___wmul
  2051                           
  2052     04FA                     l1014:	
  2053                           ;incstack = 0
  2054                           ; Regs used in ___wmul: [wreg+status,2+status,0]
  2055                           
  2056     04FA  01F5               	clrf	___wmul@product
  2057     04FB  01F6               	clrf	___wmul@product+1
  2058     04FC                     l1016:
  2059     04FC  1C71               	btfss	___wmul@multiplier,0
  2060     04FD  2CFF               	goto	u581
  2061     04FE  2D00               	goto	u580
  2062     04FF                     u581:
  2063     04FF  2D06               	goto	l200
  2064     0500                     u580:
  2065     0500                     l1018:
  2066     0500  0873               	movf	___wmul@multiplicand,w
  2067     0501  07F5               	addwf	___wmul@product,f
  2068     0502  1803               	skipnc
  2069     0503  0AF6               	incf	___wmul@product+1,f
  2070     0504  0874               	movf	___wmul@multiplicand+1,w
  2071     0505  07F6               	addwf	___wmul@product+1,f
  2072     0506                     l200:
  2073     0506  3001               	movlw	1
  2074     0507                     u595:
  2075     0507  1003               	clrc
  2076     0508  0DF3               	rlf	___wmul@multiplicand,f
  2077     0509  0DF4               	rlf	___wmul@multiplicand+1,f
  2078     050A  3EFF               	addlw	-1
  2079     050B  1D03               	skipz
  2080     050C  2D07               	goto	u595
  2081     050D                     l1020:
  2082     050D  3001               	movlw	1
  2083     050E                     u605:
  2084     050E  1003               	clrc
  2085     050F  0CF2               	rrf	___wmul@multiplier+1,f
  2086     0510  0CF1               	rrf	___wmul@multiplier,f
  2087     0511  3EFF               	addlw	-1
  2088     0512  1D03               	skipz
  2089     0513  2D0E               	goto	u605
  2090     0514                     l1022:
  2091     0514  0871               	movf	___wmul@multiplier,w
  2092     0515  0472               	iorwf	___wmul@multiplier+1,w
  2093     0516  1D03               	btfss	3,2
  2094     0517  2D19               	goto	u611
  2095     0518  2D1A               	goto	u610
  2096     0519                     u611:
  2097     0519  2CFC               	goto	l1016
  2098     051A                     u610:
  2099     051A                     l1024:
  2100     051A  0876               	movf	___wmul@product+1,w
  2101     051B  00F2               	movwf	?___wmul+1
  2102     051C  0875               	movf	___wmul@product,w
  2103     051D  00F1               	movwf	?___wmul
  2104     051E                     l202:
  2105     051E  0008               	return
  2106     051F                     __end_of___wmul:
  2107     007E                     btemp	set	126	;btemp
  2108     007E                     wtemp0	set	126
  2109                           
  2110                           	psect	config
  2111                           
  2112                           ;Config register CONFIG @ 0x2007
  2113                           ;	Oscillator Selection bits
  2114                           ;	FOSC = 0x3, unprogrammed default
  2115                           ;	Watchdog Timer Enable bit
  2116                           ;	WDTE = OFF, WDT disabled
  2117                           ;	Power-up Timer Enable bit
  2118                           ;	PWRTE = 0x1, unprogrammed default
  2119                           ;	Brown-out Reset Enable bit
  2120                           ;	BOREN = 0x1, unprogrammed default
  2121                           ;	Low-Voltage (Single-Supply) In-Circuit Serial Programming Enable bit
  2122                           ;	LVP = 0x1, unprogrammed default
  2123                           ;	Data EEPROM Memory Code Protection bit
  2124                           ;	CPD = 0x1, unprogrammed default
  2125                           ;	Flash Program Memory Write Enable bits
  2126                           ;	WRT = 0x3, unprogrammed default
  2127                           ;	In-Circuit Debugger Mode bit
  2128                           ;	DEBUG = 0x1, unprogrammed default
  2129                           ;	Flash Program Memory Code Protection bit
  2130                           ;	CP = 0x1, unprogrammed default
  2131     2007                     	org	8199
  2132     2007  3FFB               	dw	16379

Data Sizes:
    Strings     0
    Constant    0
    Data        11
    BSS         6
    Persistent  1
    Stack       0

Auto Spaces:
    Space          Size  Autos    Used
    COMMON           14     14      14
    BANK0            80     28      46
    BANK1            80      0       0
    BANK3            96      0       0
    BANK2            96      0       0

Pointer List with Targets:

    display@data	PTR unsigned char  size(1) Largest target is 4
		 -> main@ssd(BANK0[4]), 


Critical Paths under _main in COMMON

    _memory_write->_eeprom_write
    _eeprom_write->___lwmod
    ___lwmod->___lwdiv
    ___wmul->_eeprom_read

Critical Paths under _main in BANK0

    _main->_memory_write

Critical Paths under _main in BANK1

    None.

Critical Paths under _main in BANK3

    None.

Critical Paths under _main in BANK2

    None.

Call Graph Tables:

 ---------------------------------------------------------------------------------
 (Depth) Function   	        Calls       Base Space   Used Autos Params    Refs
 ---------------------------------------------------------------------------------
 (0) _main                                                26    26      0    5751
                                              2 BANK0     26    26      0
                            ___lwdiv
                            ___lwmod
                             ___wmul
                            _display
                        _eeprom_read
                        _init_config
                       _memory_write
                _read_digital_keypad
 ---------------------------------------------------------------------------------
 (1) _read_digital_keypad                                  2     2      0      22
                                              0 COMMON     2     2      0
 ---------------------------------------------------------------------------------
 (1) _memory_write                                         2     0      2    2657
                                              0 BANK0      2     0      2
                            ___lwdiv
                            ___lwmod
                       _eeprom_write
 ---------------------------------------------------------------------------------
 (2) _eeprom_write                                         2     1      1     348
                                             12 COMMON     2     1      1
                            ___lwdiv (ARG)
                            ___lwmod (ARG)
 ---------------------------------------------------------------------------------
 (2) ___lwmod                                              5     1      4    1071
                                              7 COMMON     5     1      4
                            ___lwdiv (ARG)
 ---------------------------------------------------------------------------------
 (2) ___lwdiv                                              7     3      4    1074
                                              0 COMMON     7     3      4
 ---------------------------------------------------------------------------------
 (1) _init_config                                          0     0      0       0
                _init_digital_keypad
                           _init_ssd
 ---------------------------------------------------------------------------------
 (2) _init_ssd                                             0     0      0       0
 ---------------------------------------------------------------------------------
 (2) _init_digital_keypad                                  0     0      0       0
 ---------------------------------------------------------------------------------
 (1) _eeprom_read                                          1     1      0      22
                                              0 COMMON     1     1      0
 ---------------------------------------------------------------------------------
 (1) _display                                              5     5      0     168
                                              0 COMMON     5     5      0
 ---------------------------------------------------------------------------------
 (1) ___wmul                                               6     2      4     548
                                              1 COMMON     6     2      4
                        _eeprom_read (ARG)
 ---------------------------------------------------------------------------------
 Estimated maximum stack depth 2
 ---------------------------------------------------------------------------------

 Call Graph Graphs:

 _main (ROOT)
   ___lwdiv
   ___lwmod
     ___lwdiv (ARG)
   ___wmul
     _eeprom_read (ARG)
   _display
   _eeprom_read
   _init_config
     _init_digital_keypad
     _init_ssd
   _memory_write
     ___lwdiv
     ___lwmod
     _eeprom_write
       ___lwdiv (ARG)
       ___lwmod (ARG)
   _read_digital_keypad

 Address spaces:
Name               Size   Autos  Total    Cost      Usage
BANK3               60      0       0       9        0.0%
BITBANK3            60      0       0       8        0.0%
SFR3                 0      0       0       4        0.0%
BITSFR3              0      0       0       4        0.0%
BANK2               60      0       0      11        0.0%
BITBANK2            60      0       0      10        0.0%
SFR2                 0      0       0       5        0.0%
BITSFR2              0      0       0       5        0.0%
BANK1               50      0       0       7        0.0%
BITBANK1            50      0       0       6        0.0%
SFR1                 0      0       0       2        0.0%
BITSFR1              0      0       0       2        0.0%
BANK0               50     1C      2E       5       57.5%
BITBANK0            50      0       0       4        0.0%
SFR0                 0      0       0       1        0.0%
BITSFR0              0      0       0       1        0.0%
COMMON               E      E       E       1      100.0%
BITCOMMON            E      0       0       0        0.0%
CODE                 0      0       0       0        0.0%
DATA                 0      0      3C      12        0.0%
ABS                  0      0      3C       3        0.0%
NULL                 0      0       0       0        0.0%
STACK                0      0       0       2        0.0%
EEDATA             100      0       0       0        0.0%


Microchip Technology PIC Macro Assembler V2.41 build 20230208172133 
Symbol Table                                                                                   Thu Mar 13 18:46:56 2025

                          pc 0002                           l15 04B8                           l18 06A0  
                         l37 0765                           l54 0548                           l48 04AD  
                         l77 05AB                           l69 04CF                           fsr 0004  
        ___wmul@multiplicand 0073                          l200 0506                          l202 051E  
                        l170 04E4                          l172 04F9                          l190 054A  
                        l193 0564                          l196 0575                          l189 054A  
                        l472 0629                          l482 05E5                          l900 0563  
                        l910 0574                          l902 0568                          l920 05F8  
                        l912 05E6                          l904 056C                          l930 0618  
                        l922 05FC                          l914 05E8                          l906 056D  
                        l932 061F                          l924 0600                          l916 05EE  
                        l940 05B2                          l908 056E                          l926 0611  
                        l918 05F1                          l934 0625                          l950 05CE  
                        l942 05B5                          l960 04AE                          l928 0617  
                        l952 05D4                          l944 05BC                          l890 04CA  
                        l954 05DB                          l946 05C0                          l938 05AC  
                        l962 062A                          l884 04A8                          l948 05C4  
                        l956 05E1                          l892 0550                          l972 052A  
                        l964 0520                          l886 04C4                          l894 0556  
                        l974 0535                          l966 0525                          l992 04EB  
                        l888 04C7                          l896 055C                          l976 053A  
                        l984 053C                          l898 055F                          l986 0545  
                        l996 0577                          l988 0547                          u410 0611  
                        u411 0610                          u340 0550                          u500 0525  
                        u405 0601                          u341 054F                          u501 0524  
                        u430 0625                          u350 0563                          u510 0535  
                        u431 0624                          u415 060D                          u351 0562  
                        u511 0534                          u440 05B2                          u360 0574  
                        u520 053A                          u425 0619                          u441 05B1  
                        u361 0573                          u521 0539                          u610 051A  
                        u370 05EE                          u530 0545                          u611 0519  
                        u371 05ED                          u531 0544                          u540 04EB  
                        u460 05C4                          u620 06B0                          u605 050E  
                        u541 04EA                          u461 05C3                          u390 0600  
                        u470 05CE                          u630 06CC                          u391 05FF  
                        u471 05CD                          u455 05B6                          u631 06CB  
                        u560 05A1                          u640 06E4                          u561 05A0  
                        u385 05F2                          u641 06E3                          u570 05AB  
                        u554 0588                          u490 05E1                          u650 06EC  
                        u571 05AA                          u555 0586                          u491 05E0  
                        u475 05CA                          u651 06EB                          u580 0500  
                        u660 076E                          u581 04FF                          u485 05D5  
                        u661 076D                          u595 0507                          fsr0 0004  
                        indf 0000                         l1010 05A1                         l1002 0578  
                       l1020 050D                         l1012 05A5                         l1004 0582  
                       l1022 0514                         l1014 04FA                         l1006 058F  
                       l1030 06A6                         l1024 051A                         l1016 04FC  
                       l1008 0593                         l1040 06E4                         l1032 06BD  
                       l1018 0500                         l1050 076E                         l1042 06E6  
                       l1034 06C6                         l1052 0770                         l1044 06EC  
                       l1060 07DE                         l1036 06CC                         l1028 06A1  
                       l1054 0785                         l1046 075A                         l1038 06D5  
                       l1056 07A7                         l1048 075F                         l1058 07C9  
      ??_read_digital_keypad 0070               ??_eeprom_write 007D                  display@data 0073  
                display@wait 0071                         _main 06A1                         btemp 007E  
                       start 0000                        ?_main 0070                        _EEADR 010D  
            __end_of___lwdiv 062A              __end_of___lwmod 05E6                 ?_init_config 0070  
                      _PORTA 0005                        _PORTB 0006                        _PORTD 0008  
                      _TRISA 0085                        _TRISB 0086                        _TRISD 0088  
               display@digit 0074              __end_of_display 05AC                        pclath 000A  
                      status 0003                        wtemp0 007E              __initialization 07E8  
               __end_of_main 07E8                       ??_main 0022                       _EEDATA 010C  
                     _EECON1 018C                       _EECON2 018D  __end_of_init_digital_keypad 04AE  
                     ___wmul 04FA                    ??___lwdiv 0074                    ??___lwmod 007B  
           __end_of_init_ssd 04D0         __end_of_eeprom_write 0576                    ??_display 0070  
              ?_memory_write 0020      __end_of__initialization 07FC              eeprom_read@addr 0070  
             __pcstackCOMMON 0070                 __pidataBANK0 04B9               ??_memory_write 007E  
          eeprom_write@value 007C                   __pbssBANK0 0047                   __pmaintext 06A1  
                    ?___wmul 0071  __end_of_read_digital_keypad 0549                    ?_init_ssd 0070  
                    ___lwdiv 05E6                      ___lwmod 05AC            memory_write@count 0020  
                    __ptext1 051F                      __ptext2 062A                      __ptext3 0549  
                    __ptext4 05AC                      __ptext5 05E6                      __ptext6 04AE  
                    __ptext7 04C4                      __ptext8 04A8                      __ptext9 04E3  
                    _display 0576                      main@key 004D                      main@ssd 0038  
       end_of_initialization 07FC                 _eeprom_write 0549                   ??_init_ssd 0070  
       __end_of_memory_write 06A1                ??_eeprom_read 0070               __end_of___wmul 051F  
        start_initialization 07E8                     ??___wmul 0075          __end_of_eeprom_read 04FA  
                 init_fetch0 04D0                  __pdataBANK0 003C                ??_init_config 0070  
                  ___latbits 0002                __pcstackBANK0 0020             eeprom_write@addr 007D  
                  __pnvBANK0 004D             ___lwdiv@dividend 0072                     ?___lwdiv 0070  
                   ?___lwmod 0077                     ?_display 0070                 _memory_write 062A  
           ___lwdiv@quotient 0074          __end_of_init_config 04B9               ___wmul@product 0075  
                _eeprom_read 04E3            ___wmul@multiplier 0071                    main@digit 002E  
                  main@count 004B          _init_digital_keypad 04A8                   _EECON1bits 018C  
       ?_init_digital_keypad 0070                  _init_config 04AE              ___lwdiv@divisor 0070  
            ___lwdiv@counter 0076                     __ptext10 0576                     __ptext11 04FA  
                   _init_ssd 04C4      read_digital_keypad@mode 0071      read_digital_keypad@once 0046  
                   main@F864 003C        ??_init_digital_keypad 0070                     main@flag 0049  
                   main@wait 0047                   _INTCONbits 000B                     init_ram0 04D4  
           ___lwmod@dividend 0079          _read_digital_keypad 051F              ___lwmod@divisor 0077  
            ___lwmod@counter 007B         ?_read_digital_keypad 0070                ?_eeprom_write 007C  
                 _STATUSbits 0003                 ?_eeprom_read 0070  
